ARM GAS  C:\Users\Lenovo\AppData\Local\Temp\cca4t8wQ.s 			page 1


   1              		.cpu cortex-m3
   2              		.arch armv7-m
   3              		.fpu softvfp
   4              		.eabi_attribute 20, 1
   5              		.eabi_attribute 21, 1
   6              		.eabi_attribute 23, 3
   7              		.eabi_attribute 24, 1
   8              		.eabi_attribute 25, 1
   9              		.eabi_attribute 26, 1
  10              		.eabi_attribute 30, 1
  11              		.eabi_attribute 34, 1
  12              		.eabi_attribute 18, 4
  13              		.file	"gpio.c"
  14              		.text
  15              	.Ltext0:
  16              		.cfi_sections	.debug_frame
  17              		.file 1 "Core/Src/gpio.c"
  18              		.section	.text.MX_GPIO_Init,"ax",%progbits
  19              		.align	1
  20              		.global	MX_GPIO_Init
  21              		.syntax unified
  22              		.thumb
  23              		.thumb_func
  25              	MX_GPIO_Init:
  26              	.LFB65:
   1:Core/Src/gpio.c **** /* USER CODE BEGIN Header */
   2:Core/Src/gpio.c **** /**
   3:Core/Src/gpio.c ****   ******************************************************************************
   4:Core/Src/gpio.c ****   * @file    gpio.c
   5:Core/Src/gpio.c ****   * @brief   This file provides code for the configuration
   6:Core/Src/gpio.c ****   *          of all used GPIO pins.
   7:Core/Src/gpio.c ****   ******************************************************************************
   8:Core/Src/gpio.c ****   * @attention
   9:Core/Src/gpio.c ****   *
  10:Core/Src/gpio.c ****   * Copyright (c) 2025 STMicroelectronics.
  11:Core/Src/gpio.c ****   * All rights reserved.
  12:Core/Src/gpio.c ****   *
  13:Core/Src/gpio.c ****   * This software is licensed under terms that can be found in the LICENSE file
  14:Core/Src/gpio.c ****   * in the root directory of this software component.
  15:Core/Src/gpio.c ****   * If no LICENSE file comes with this software, it is provided AS-IS.
  16:Core/Src/gpio.c ****   *
  17:Core/Src/gpio.c ****   ******************************************************************************
  18:Core/Src/gpio.c ****   */
  19:Core/Src/gpio.c **** /* USER CODE END Header */
  20:Core/Src/gpio.c **** 
  21:Core/Src/gpio.c **** /* Includes ------------------------------------------------------------------*/
  22:Core/Src/gpio.c **** #include "gpio.h"
  23:Core/Src/gpio.c **** 
  24:Core/Src/gpio.c **** /* USER CODE BEGIN 0 */
  25:Core/Src/gpio.c **** 
  26:Core/Src/gpio.c **** /* USER CODE END 0 */
  27:Core/Src/gpio.c **** 
  28:Core/Src/gpio.c **** /*----------------------------------------------------------------------------*/
  29:Core/Src/gpio.c **** /* Configure GPIO                                                             */
  30:Core/Src/gpio.c **** /*----------------------------------------------------------------------------*/
  31:Core/Src/gpio.c **** /* USER CODE BEGIN 1 */
  32:Core/Src/gpio.c **** 
ARM GAS  C:\Users\Lenovo\AppData\Local\Temp\cca4t8wQ.s 			page 2


  33:Core/Src/gpio.c **** /* USER CODE END 1 */
  34:Core/Src/gpio.c **** 
  35:Core/Src/gpio.c **** /** Configure pins as
  36:Core/Src/gpio.c ****         * Analog
  37:Core/Src/gpio.c ****         * Input
  38:Core/Src/gpio.c ****         * Output
  39:Core/Src/gpio.c ****         * EVENT_OUT
  40:Core/Src/gpio.c ****         * EXTI
  41:Core/Src/gpio.c **** */
  42:Core/Src/gpio.c **** void MX_GPIO_Init(void)
  43:Core/Src/gpio.c **** {
  27              		.loc 1 43 1 view -0
  28              		.cfi_startproc
  29              		@ args = 0, pretend = 0, frame = 40
  30              		@ frame_needed = 0, uses_anonymous_args = 0
  31 0000 2DE9F047 		push	{r4, r5, r6, r7, r8, r9, r10, lr}
  32              	.LCFI0:
  33              		.cfi_def_cfa_offset 32
  34              		.cfi_offset 4, -32
  35              		.cfi_offset 5, -28
  36              		.cfi_offset 6, -24
  37              		.cfi_offset 7, -20
  38              		.cfi_offset 8, -16
  39              		.cfi_offset 9, -12
  40              		.cfi_offset 10, -8
  41              		.cfi_offset 14, -4
  42 0004 8AB0     		sub	sp, sp, #40
  43              	.LCFI1:
  44              		.cfi_def_cfa_offset 72
  44:Core/Src/gpio.c **** 
  45:Core/Src/gpio.c ****   GPIO_InitTypeDef GPIO_InitStruct = {0};
  45              		.loc 1 45 3 view .LVU1
  46              		.loc 1 45 20 is_stmt 0 view .LVU2
  47 0006 06AD     		add	r5, sp, #24
  48 0008 0024     		movs	r4, #0
  49 000a 0694     		str	r4, [sp, #24]
  50 000c 0794     		str	r4, [sp, #28]
  51 000e 0894     		str	r4, [sp, #32]
  52 0010 0994     		str	r4, [sp, #36]
  46:Core/Src/gpio.c **** 
  47:Core/Src/gpio.c ****   /* GPIO Ports Clock Enable */
  48:Core/Src/gpio.c ****   __HAL_RCC_GPIOC_CLK_ENABLE();
  53              		.loc 1 48 3 is_stmt 1 view .LVU3
  54              	.LBB2:
  55              		.loc 1 48 3 view .LVU4
  56              		.loc 1 48 3 view .LVU5
  57 0012 444B     		ldr	r3, .L3
  58 0014 9A69     		ldr	r2, [r3, #24]
  59 0016 42F01002 		orr	r2, r2, #16
  60 001a 9A61     		str	r2, [r3, #24]
  61              		.loc 1 48 3 view .LVU6
  62 001c 9A69     		ldr	r2, [r3, #24]
  63 001e 02F01002 		and	r2, r2, #16
  64 0022 0192     		str	r2, [sp, #4]
  65              		.loc 1 48 3 view .LVU7
  66 0024 019A     		ldr	r2, [sp, #4]
  67              	.LBE2:
ARM GAS  C:\Users\Lenovo\AppData\Local\Temp\cca4t8wQ.s 			page 3


  68              		.loc 1 48 3 view .LVU8
  49:Core/Src/gpio.c ****   __HAL_RCC_GPIOA_CLK_ENABLE();
  69              		.loc 1 49 3 view .LVU9
  70              	.LBB3:
  71              		.loc 1 49 3 view .LVU10
  72              		.loc 1 49 3 view .LVU11
  73 0026 9A69     		ldr	r2, [r3, #24]
  74 0028 42F00402 		orr	r2, r2, #4
  75 002c 9A61     		str	r2, [r3, #24]
  76              		.loc 1 49 3 view .LVU12
  77 002e 9A69     		ldr	r2, [r3, #24]
  78 0030 02F00402 		and	r2, r2, #4
  79 0034 0292     		str	r2, [sp, #8]
  80              		.loc 1 49 3 view .LVU13
  81 0036 029A     		ldr	r2, [sp, #8]
  82              	.LBE3:
  83              		.loc 1 49 3 view .LVU14
  50:Core/Src/gpio.c ****   __HAL_RCC_GPIOE_CLK_ENABLE();
  84              		.loc 1 50 3 view .LVU15
  85              	.LBB4:
  86              		.loc 1 50 3 view .LVU16
  87              		.loc 1 50 3 view .LVU17
  88 0038 9A69     		ldr	r2, [r3, #24]
  89 003a 42F04002 		orr	r2, r2, #64
  90 003e 9A61     		str	r2, [r3, #24]
  91              		.loc 1 50 3 view .LVU18
  92 0040 9A69     		ldr	r2, [r3, #24]
  93 0042 02F04002 		and	r2, r2, #64
  94 0046 0392     		str	r2, [sp, #12]
  95              		.loc 1 50 3 view .LVU19
  96 0048 039A     		ldr	r2, [sp, #12]
  97              	.LBE4:
  98              		.loc 1 50 3 view .LVU20
  51:Core/Src/gpio.c ****   __HAL_RCC_GPIOB_CLK_ENABLE();
  99              		.loc 1 51 3 view .LVU21
 100              	.LBB5:
 101              		.loc 1 51 3 view .LVU22
 102              		.loc 1 51 3 view .LVU23
 103 004a 9A69     		ldr	r2, [r3, #24]
 104 004c 42F00802 		orr	r2, r2, #8
 105 0050 9A61     		str	r2, [r3, #24]
 106              		.loc 1 51 3 view .LVU24
 107 0052 9A69     		ldr	r2, [r3, #24]
 108 0054 02F00802 		and	r2, r2, #8
 109 0058 0492     		str	r2, [sp, #16]
 110              		.loc 1 51 3 view .LVU25
 111 005a 049A     		ldr	r2, [sp, #16]
 112              	.LBE5:
 113              		.loc 1 51 3 view .LVU26
  52:Core/Src/gpio.c ****   __HAL_RCC_GPIOD_CLK_ENABLE();
 114              		.loc 1 52 3 view .LVU27
 115              	.LBB6:
 116              		.loc 1 52 3 view .LVU28
 117              		.loc 1 52 3 view .LVU29
 118 005c 9A69     		ldr	r2, [r3, #24]
 119 005e 42F02002 		orr	r2, r2, #32
 120 0062 9A61     		str	r2, [r3, #24]
ARM GAS  C:\Users\Lenovo\AppData\Local\Temp\cca4t8wQ.s 			page 4


 121              		.loc 1 52 3 view .LVU30
 122 0064 9B69     		ldr	r3, [r3, #24]
 123 0066 03F02003 		and	r3, r3, #32
 124 006a 0593     		str	r3, [sp, #20]
 125              		.loc 1 52 3 view .LVU31
 126 006c 059B     		ldr	r3, [sp, #20]
 127              	.LBE6:
 128              		.loc 1 52 3 view .LVU32
  53:Core/Src/gpio.c **** 
  54:Core/Src/gpio.c ****   /*Configure GPIO pin Output Level */
  55:Core/Src/gpio.c ****   HAL_GPIO_WritePin(GPIOB, CIN1_Pin|DIN1_Pin|DIN2_Pin|BIN1_Pin
 129              		.loc 1 55 3 view .LVU33
 130 006e DFF8B890 		ldr	r9, .L3+4
 131 0072 2246     		mov	r2, r4
 132 0074 4EF23031 		movw	r1, #58160
 133 0078 4846     		mov	r0, r9
 134 007a FFF7FEFF 		bl	HAL_GPIO_WritePin
 135              	.LVL0:
  56:Core/Src/gpio.c ****                           |BIN2_Pin|OLED_SDA_Pin|OLED_SCL_Pin, GPIO_PIN_RESET);
  57:Core/Src/gpio.c **** 
  58:Core/Src/gpio.c ****   /*Configure GPIO pin Output Level */
  59:Core/Src/gpio.c ****   HAL_GPIO_WritePin(GPIOD, Right_Red_Pin|Right_Blue_Pin|Right_Green_Pin|Left_Blue_Pin
 136              		.loc 1 59 3 view .LVU34
 137 007e DFF8AC80 		ldr	r8, .L3+8
 138 0082 0122     		movs	r2, #1
 139 0084 40F60B31 		movw	r1, #2827
 140 0088 4046     		mov	r0, r8
 141 008a FFF7FEFF 		bl	HAL_GPIO_WritePin
 142              	.LVL1:
  60:Core/Src/gpio.c ****                           |Left_Red_Pin|Left_Green_Pin, GPIO_PIN_SET);
  61:Core/Src/gpio.c **** 
  62:Core/Src/gpio.c ****   /*Configure GPIO pin Output Level */
  63:Core/Src/gpio.c ****   HAL_GPIO_WritePin(GPIOD, AIN2_Pin|AIN1_Pin, GPIO_PIN_RESET);
 143              		.loc 1 63 3 view .LVU35
 144 008e 2246     		mov	r2, r4
 145 0090 C021     		movs	r1, #192
 146 0092 4046     		mov	r0, r8
 147 0094 FFF7FEFF 		bl	HAL_GPIO_WritePin
 148              	.LVL2:
  64:Core/Src/gpio.c **** 
  65:Core/Src/gpio.c ****   /*Configure GPIO pin Output Level */
  66:Core/Src/gpio.c ****   HAL_GPIO_WritePin(CIN2_GPIO_Port, CIN2_Pin, GPIO_PIN_RESET);
 149              		.loc 1 66 3 view .LVU36
 150 0098 DFF894A0 		ldr	r10, .L3+12
 151 009c 2246     		mov	r2, r4
 152 009e 0121     		movs	r1, #1
 153 00a0 5046     		mov	r0, r10
 154 00a2 FFF7FEFF 		bl	HAL_GPIO_WritePin
 155              	.LVL3:
  67:Core/Src/gpio.c **** 
  68:Core/Src/gpio.c ****   /*Configure GPIO pins : KEY1_Pin KEY2_Pin KEY3_Pin */
  69:Core/Src/gpio.c ****   GPIO_InitStruct.Pin = KEY1_Pin|KEY2_Pin|KEY3_Pin;
 156              		.loc 1 69 3 view .LVU37
 157              		.loc 1 69 23 is_stmt 0 view .LVU38
 158 00a6 0E23     		movs	r3, #14
 159 00a8 0693     		str	r3, [sp, #24]
  70:Core/Src/gpio.c ****   GPIO_InitStruct.Mode = GPIO_MODE_INPUT;
ARM GAS  C:\Users\Lenovo\AppData\Local\Temp\cca4t8wQ.s 			page 5


 160              		.loc 1 70 3 is_stmt 1 view .LVU39
 161              		.loc 1 70 24 is_stmt 0 view .LVU40
 162 00aa 0794     		str	r4, [sp, #28]
  71:Core/Src/gpio.c ****   GPIO_InitStruct.Pull = GPIO_PULLUP;
 163              		.loc 1 71 3 is_stmt 1 view .LVU41
 164              		.loc 1 71 24 is_stmt 0 view .LVU42
 165 00ac 0126     		movs	r6, #1
 166 00ae 0896     		str	r6, [sp, #32]
  72:Core/Src/gpio.c ****   HAL_GPIO_Init(GPIOC, &GPIO_InitStruct);
 167              		.loc 1 72 3 is_stmt 1 view .LVU43
 168 00b0 2946     		mov	r1, r5
 169 00b2 2048     		ldr	r0, .L3+16
 170 00b4 FFF7FEFF 		bl	HAL_GPIO_Init
 171              	.LVL4:
  73:Core/Src/gpio.c **** 
  74:Core/Src/gpio.c ****   /*Configure GPIO pins : CIN1_Pin DIN1_Pin DIN2_Pin BIN1_Pin
  75:Core/Src/gpio.c ****                            BIN2_Pin */
  76:Core/Src/gpio.c ****   GPIO_InitStruct.Pin = CIN1_Pin|DIN1_Pin|DIN2_Pin|BIN1_Pin
 172              		.loc 1 76 3 view .LVU44
 173              		.loc 1 76 23 is_stmt 0 view .LVU45
 174 00b8 4EF23003 		movw	r3, #57392
 175 00bc 0693     		str	r3, [sp, #24]
  77:Core/Src/gpio.c ****                           |BIN2_Pin;
  78:Core/Src/gpio.c ****   GPIO_InitStruct.Mode = GPIO_MODE_OUTPUT_PP;
 176              		.loc 1 78 3 is_stmt 1 view .LVU46
 177              		.loc 1 78 24 is_stmt 0 view .LVU47
 178 00be 0796     		str	r6, [sp, #28]
  79:Core/Src/gpio.c ****   GPIO_InitStruct.Pull = GPIO_NOPULL;
 179              		.loc 1 79 3 is_stmt 1 view .LVU48
 180              		.loc 1 79 24 is_stmt 0 view .LVU49
 181 00c0 0894     		str	r4, [sp, #32]
  80:Core/Src/gpio.c ****   GPIO_InitStruct.Speed = GPIO_SPEED_FREQ_LOW;
 182              		.loc 1 80 3 is_stmt 1 view .LVU50
 183              		.loc 1 80 25 is_stmt 0 view .LVU51
 184 00c2 0227     		movs	r7, #2
 185 00c4 0997     		str	r7, [sp, #36]
  81:Core/Src/gpio.c ****   HAL_GPIO_Init(GPIOB, &GPIO_InitStruct);
 186              		.loc 1 81 3 is_stmt 1 view .LVU52
 187 00c6 2946     		mov	r1, r5
 188 00c8 4846     		mov	r0, r9
 189 00ca FFF7FEFF 		bl	HAL_GPIO_Init
 190              	.LVL5:
  82:Core/Src/gpio.c **** 
  83:Core/Src/gpio.c ****   /*Configure GPIO pins : Right_Red_Pin Right_Blue_Pin Right_Green_Pin Left_Blue_Pin
  84:Core/Src/gpio.c ****                            Left_Red_Pin Left_Green_Pin */
  85:Core/Src/gpio.c ****   GPIO_InitStruct.Pin = Right_Red_Pin|Right_Blue_Pin|Right_Green_Pin|Left_Blue_Pin
 191              		.loc 1 85 3 view .LVU53
 192              		.loc 1 85 23 is_stmt 0 view .LVU54
 193 00ce 40F60B33 		movw	r3, #2827
 194 00d2 0693     		str	r3, [sp, #24]
  86:Core/Src/gpio.c ****                           |Left_Red_Pin|Left_Green_Pin;
  87:Core/Src/gpio.c ****   GPIO_InitStruct.Mode = GPIO_MODE_OUTPUT_PP;
 195              		.loc 1 87 3 is_stmt 1 view .LVU55
 196              		.loc 1 87 24 is_stmt 0 view .LVU56
 197 00d4 0796     		str	r6, [sp, #28]
  88:Core/Src/gpio.c ****   GPIO_InitStruct.Pull = GPIO_PULLUP;
 198              		.loc 1 88 3 is_stmt 1 view .LVU57
ARM GAS  C:\Users\Lenovo\AppData\Local\Temp\cca4t8wQ.s 			page 6


 199              		.loc 1 88 24 is_stmt 0 view .LVU58
 200 00d6 0896     		str	r6, [sp, #32]
  89:Core/Src/gpio.c ****   GPIO_InitStruct.Speed = GPIO_SPEED_FREQ_LOW;
 201              		.loc 1 89 3 is_stmt 1 view .LVU59
 202              		.loc 1 89 25 is_stmt 0 view .LVU60
 203 00d8 0997     		str	r7, [sp, #36]
  90:Core/Src/gpio.c ****   HAL_GPIO_Init(GPIOD, &GPIO_InitStruct);
 204              		.loc 1 90 3 is_stmt 1 view .LVU61
 205 00da 2946     		mov	r1, r5
 206 00dc 4046     		mov	r0, r8
 207 00de FFF7FEFF 		bl	HAL_GPIO_Init
 208              	.LVL6:
  91:Core/Src/gpio.c **** 
  92:Core/Src/gpio.c ****   /*Configure GPIO pins : AIN2_Pin AIN1_Pin */
  93:Core/Src/gpio.c ****   GPIO_InitStruct.Pin = AIN2_Pin|AIN1_Pin;
 209              		.loc 1 93 3 view .LVU62
 210              		.loc 1 93 23 is_stmt 0 view .LVU63
 211 00e2 C023     		movs	r3, #192
 212 00e4 0693     		str	r3, [sp, #24]
  94:Core/Src/gpio.c ****   GPIO_InitStruct.Mode = GPIO_MODE_OUTPUT_PP;
 213              		.loc 1 94 3 is_stmt 1 view .LVU64
 214              		.loc 1 94 24 is_stmt 0 view .LVU65
 215 00e6 0796     		str	r6, [sp, #28]
  95:Core/Src/gpio.c ****   GPIO_InitStruct.Pull = GPIO_NOPULL;
 216              		.loc 1 95 3 is_stmt 1 view .LVU66
 217              		.loc 1 95 24 is_stmt 0 view .LVU67
 218 00e8 0894     		str	r4, [sp, #32]
  96:Core/Src/gpio.c ****   GPIO_InitStruct.Speed = GPIO_SPEED_FREQ_LOW;
 219              		.loc 1 96 3 is_stmt 1 view .LVU68
 220              		.loc 1 96 25 is_stmt 0 view .LVU69
 221 00ea 0997     		str	r7, [sp, #36]
  97:Core/Src/gpio.c ****   HAL_GPIO_Init(GPIOD, &GPIO_InitStruct);
 222              		.loc 1 97 3 is_stmt 1 view .LVU70
 223 00ec 2946     		mov	r1, r5
 224 00ee 4046     		mov	r0, r8
 225 00f0 FFF7FEFF 		bl	HAL_GPIO_Init
 226              	.LVL7:
  98:Core/Src/gpio.c **** 
  99:Core/Src/gpio.c ****   /*Configure GPIO pins : OLED_SDA_Pin OLED_SCL_Pin */
 100:Core/Src/gpio.c ****   GPIO_InitStruct.Pin = OLED_SDA_Pin|OLED_SCL_Pin;
 227              		.loc 1 100 3 view .LVU71
 228              		.loc 1 100 23 is_stmt 0 view .LVU72
 229 00f4 4FF44073 		mov	r3, #768
 230 00f8 0693     		str	r3, [sp, #24]
 101:Core/Src/gpio.c ****   GPIO_InitStruct.Mode = GPIO_MODE_OUTPUT_OD;
 231              		.loc 1 101 3 is_stmt 1 view .LVU73
 232              		.loc 1 101 24 is_stmt 0 view .LVU74
 233 00fa 1123     		movs	r3, #17
 234 00fc 0793     		str	r3, [sp, #28]
 102:Core/Src/gpio.c ****   GPIO_InitStruct.Pull = GPIO_NOPULL;
 235              		.loc 1 102 3 is_stmt 1 view .LVU75
 236              		.loc 1 102 24 is_stmt 0 view .LVU76
 237 00fe 0894     		str	r4, [sp, #32]
 103:Core/Src/gpio.c ****   GPIO_InitStruct.Speed = GPIO_SPEED_FREQ_HIGH;
 238              		.loc 1 103 3 is_stmt 1 view .LVU77
 239              		.loc 1 103 25 is_stmt 0 view .LVU78
 240 0100 0323     		movs	r3, #3
ARM GAS  C:\Users\Lenovo\AppData\Local\Temp\cca4t8wQ.s 			page 7


 241 0102 0993     		str	r3, [sp, #36]
 104:Core/Src/gpio.c ****   HAL_GPIO_Init(GPIOB, &GPIO_InitStruct);
 242              		.loc 1 104 3 is_stmt 1 view .LVU79
 243 0104 2946     		mov	r1, r5
 244 0106 4846     		mov	r0, r9
 245 0108 FFF7FEFF 		bl	HAL_GPIO_Init
 246              	.LVL8:
 105:Core/Src/gpio.c **** 
 106:Core/Src/gpio.c ****   /*Configure GPIO pin : CIN2_Pin */
 107:Core/Src/gpio.c ****   GPIO_InitStruct.Pin = CIN2_Pin;
 247              		.loc 1 107 3 view .LVU80
 248              		.loc 1 107 23 is_stmt 0 view .LVU81
 249 010c 0696     		str	r6, [sp, #24]
 108:Core/Src/gpio.c ****   GPIO_InitStruct.Mode = GPIO_MODE_OUTPUT_PP;
 250              		.loc 1 108 3 is_stmt 1 view .LVU82
 251              		.loc 1 108 24 is_stmt 0 view .LVU83
 252 010e 0796     		str	r6, [sp, #28]
 109:Core/Src/gpio.c ****   GPIO_InitStruct.Pull = GPIO_NOPULL;
 253              		.loc 1 109 3 is_stmt 1 view .LVU84
 254              		.loc 1 109 24 is_stmt 0 view .LVU85
 255 0110 0894     		str	r4, [sp, #32]
 110:Core/Src/gpio.c ****   GPIO_InitStruct.Speed = GPIO_SPEED_FREQ_LOW;
 256              		.loc 1 110 3 is_stmt 1 view .LVU86
 257              		.loc 1 110 25 is_stmt 0 view .LVU87
 258 0112 0997     		str	r7, [sp, #36]
 111:Core/Src/gpio.c ****   HAL_GPIO_Init(CIN2_GPIO_Port, &GPIO_InitStruct);
 259              		.loc 1 111 3 is_stmt 1 view .LVU88
 260 0114 2946     		mov	r1, r5
 261 0116 5046     		mov	r0, r10
 262 0118 FFF7FEFF 		bl	HAL_GPIO_Init
 263              	.LVL9:
 112:Core/Src/gpio.c **** 
 113:Core/Src/gpio.c **** }
 264              		.loc 1 113 1 is_stmt 0 view .LVU89
 265 011c 0AB0     		add	sp, sp, #40
 266              	.LCFI2:
 267              		.cfi_def_cfa_offset 32
 268              		@ sp needed
 269 011e BDE8F087 		pop	{r4, r5, r6, r7, r8, r9, r10, pc}
 270              	.L4:
 271 0122 00BF     		.align	2
 272              	.L3:
 273 0124 00100240 		.word	1073876992
 274 0128 000C0140 		.word	1073810432
 275 012c 00140140 		.word	1073812480
 276 0130 00180140 		.word	1073813504
 277 0134 00100140 		.word	1073811456
 278              		.cfi_endproc
 279              	.LFE65:
 281              		.text
 282              	.Letext0:
 283              		.file 2 "D:/arm-none-eabi-gcc/arm-none-eabi/include/machine/_default_types.h"
 284              		.file 3 "D:/arm-none-eabi-gcc/arm-none-eabi/include/sys/_stdint.h"
 285              		.file 4 "Drivers/CMSIS/Device/ST/STM32F1xx/Include/stm32f103xe.h"
 286              		.file 5 "Drivers/STM32F1xx_HAL_Driver/Inc/stm32f1xx_hal_gpio.h"
ARM GAS  C:\Users\Lenovo\AppData\Local\Temp\cca4t8wQ.s 			page 8

