ARM GAS  C:\Users\Lenovo\AppData\Local\Temp\cc1iLKwr.s 			page 1


   1              		.cpu cortex-m3
   2              		.arch armv7-m
   3              		.fpu softvfp
   4              		.eabi_attribute 20, 1
   5              		.eabi_attribute 21, 1
   6              		.eabi_attribute 23, 3
   7              		.eabi_attribute 24, 1
   8              		.eabi_attribute 25, 1
   9              		.eabi_attribute 26, 1
  10              		.eabi_attribute 30, 1
  11              		.eabi_attribute 34, 1
  12              		.eabi_attribute 18, 4
  13              		.file	"KEY.c"
  14              		.text
  15              	.Ltext0:
  16              		.cfi_sections	.debug_frame
  17              		.file 1 "USER/Hardware/KEY.c"
  18              		.section	.text.Key_Init,"ax",%progbits
  19              		.align	1
  20              		.global	Key_Init
  21              		.syntax unified
  22              		.thumb
  23              		.thumb_func
  25              	Key_Init:
  26              	.LFB65:
   1:USER/Hardware/KEY.c **** #include "KEY.h" // 包含按键相关的头文件，其中定义了与按键相关的宏和函数原型
   2:USER/Hardware/KEY.c **** 
   3:USER/Hardware/KEY.c **** 
   4:USER/Hardware/KEY.c ****  
   5:USER/Hardware/KEY.c **** // 定义全局变量，用于记录每个按键被按下的次数
   6:USER/Hardware/KEY.c **** int Key1_Num ; // 记录按键1被按下的次数
   7:USER/Hardware/KEY.c **** int Key2_Num ; // 记录按键2被按下的次数
   8:USER/Hardware/KEY.c **** int Key3_Num ; // 记录按键3被按下的次数
   9:USER/Hardware/KEY.c **** int16_t wait_time[SIZE_OF_WAIT] = {0}; // 按键消抖用时间
  10:USER/Hardware/KEY.c **** 
  11:USER/Hardware/KEY.c **** //按键初始化
  12:USER/Hardware/KEY.c **** void Key_Init ()
  13:USER/Hardware/KEY.c **** {
  27              		.loc 1 13 1 view -0
  28              		.cfi_startproc
  29              		@ args = 0, pretend = 0, frame = 0
  30              		@ frame_needed = 0, uses_anonymous_args = 0
  31              		@ link register save eliminated.
  14:USER/Hardware/KEY.c **** 	Key1_Num = 0;
  32              		.loc 1 14 2 view .LVU1
  33              		.loc 1 14 11 is_stmt 0 view .LVU2
  34 0000 0023     		movs	r3, #0
  35 0002 034A     		ldr	r2, .L2
  36 0004 1360     		str	r3, [r2]
  15:USER/Hardware/KEY.c **** 	Key2_Num = 0;
  37              		.loc 1 15 2 is_stmt 1 view .LVU3
  38              		.loc 1 15 11 is_stmt 0 view .LVU4
  39 0006 034A     		ldr	r2, .L2+4
  40 0008 1360     		str	r3, [r2]
  16:USER/Hardware/KEY.c **** 	Key3_Num = 0;
  41              		.loc 1 16 2 is_stmt 1 view .LVU5
  42              		.loc 1 16 11 is_stmt 0 view .LVU6
ARM GAS  C:\Users\Lenovo\AppData\Local\Temp\cc1iLKwr.s 			page 2


  43 000a 034A     		ldr	r2, .L2+8
  44 000c 1360     		str	r3, [r2]
  17:USER/Hardware/KEY.c **** 
  18:USER/Hardware/KEY.c **** }
  45              		.loc 1 18 1 view .LVU7
  46 000e 7047     		bx	lr
  47              	.L3:
  48              		.align	2
  49              	.L2:
  50 0010 00000000 		.word	Key1_Num
  51 0014 00000000 		.word	Key2_Num
  52 0018 00000000 		.word	Key3_Num
  53              		.cfi_endproc
  54              	.LFE65:
  56              		.section	.text.Wait,"ax",%progbits
  57              		.align	1
  58              		.global	Wait
  59              		.syntax unified
  60              		.thumb
  61              		.thumb_func
  63              	Wait:
  64              	.LVL0:
  65              	.LFB66:
  19:USER/Hardware/KEY.c **** 
  20:USER/Hardware/KEY.c **** //按键消抖
  21:USER/Hardware/KEY.c **** uint8_t Wait(uint8_t key)
  22:USER/Hardware/KEY.c **** {
  66              		.loc 1 22 1 is_stmt 1 view -0
  67              		.cfi_startproc
  68              		@ args = 0, pretend = 0, frame = 0
  69              		@ frame_needed = 0, uses_anonymous_args = 0
  70              		@ link register save eliminated.
  23:USER/Hardware/KEY.c ****     if (wait_time[key] >= 2)
  71              		.loc 1 23 5 view .LVU9
  72              		.loc 1 23 18 is_stmt 0 view .LVU10
  73 0000 0A4B     		ldr	r3, .L10
  74 0002 33F91030 		ldrsh	r3, [r3, r0, lsl #1]
  75              		.loc 1 23 8 view .LVU11
  76 0006 012B     		cmp	r3, #1
  77 0008 04DC     		bgt	.L8
  24:USER/Hardware/KEY.c ****     {
  25:USER/Hardware/KEY.c ****         wait_time[key]--;
  26:USER/Hardware/KEY.c ****         return 0;
  27:USER/Hardware/KEY.c ****     }
  28:USER/Hardware/KEY.c ****     else if ((wait_time[key] == 0) || (wait_time[key] == 1))
  78              		.loc 1 28 10 is_stmt 1 view .LVU12
  79              		.loc 1 28 36 is_stmt 0 view .LVU13
  80 000a 9BB2     		uxth	r3, r3
  81              		.loc 1 28 13 view .LVU14
  82 000c 012B     		cmp	r3, #1
  83 000e 07D9     		bls	.L9
  29:USER/Hardware/KEY.c ****     {
  30:USER/Hardware/KEY.c ****         wait_time[key]--;
  31:USER/Hardware/KEY.c ****         return 1;
  32:USER/Hardware/KEY.c ****     }
  33:USER/Hardware/KEY.c ****     else
  34:USER/Hardware/KEY.c ****     {
ARM GAS  C:\Users\Lenovo\AppData\Local\Temp\cc1iLKwr.s 			page 3


  35:USER/Hardware/KEY.c ****         return 0;
  84              		.loc 1 35 16 view .LVU15
  85 0010 0020     		movs	r0, #0
  86              	.LVL1:
  36:USER/Hardware/KEY.c ****     }
  37:USER/Hardware/KEY.c **** }
  87              		.loc 1 37 1 view .LVU16
  88 0012 7047     		bx	lr
  89              	.LVL2:
  90              	.L8:
  25:USER/Hardware/KEY.c ****         return 0;
  91              		.loc 1 25 9 is_stmt 1 view .LVU17
  25:USER/Hardware/KEY.c ****         return 0;
  92              		.loc 1 25 23 is_stmt 0 view .LVU18
  93 0014 013B     		subs	r3, r3, #1
  94 0016 054A     		ldr	r2, .L10
  95 0018 22F81030 		strh	r3, [r2, r0, lsl #1]	@ movhi
  26:USER/Hardware/KEY.c ****     }
  96              		.loc 1 26 9 is_stmt 1 view .LVU19
  26:USER/Hardware/KEY.c ****     }
  97              		.loc 1 26 16 is_stmt 0 view .LVU20
  98 001c 0020     		movs	r0, #0
  99              	.LVL3:
  26:USER/Hardware/KEY.c ****     }
 100              		.loc 1 26 16 view .LVU21
 101 001e 7047     		bx	lr
 102              	.LVL4:
 103              	.L9:
  30:USER/Hardware/KEY.c ****         return 1;
 104              		.loc 1 30 9 is_stmt 1 view .LVU22
  30:USER/Hardware/KEY.c ****         return 1;
 105              		.loc 1 30 23 is_stmt 0 view .LVU23
 106 0020 013B     		subs	r3, r3, #1
 107 0022 024A     		ldr	r2, .L10
 108 0024 22F81030 		strh	r3, [r2, r0, lsl #1]	@ movhi
  31:USER/Hardware/KEY.c ****     }
 109              		.loc 1 31 9 is_stmt 1 view .LVU24
  31:USER/Hardware/KEY.c ****     }
 110              		.loc 1 31 16 is_stmt 0 view .LVU25
 111 0028 0120     		movs	r0, #1
 112              	.LVL5:
  31:USER/Hardware/KEY.c ****     }
 113              		.loc 1 31 16 view .LVU26
 114 002a 7047     		bx	lr
 115              	.L11:
 116              		.align	2
 117              	.L10:
 118 002c 00000000 		.word	wait_time
 119              		.cfi_endproc
 120              	.LFE66:
 122              		.section	.text.SetWait,"ax",%progbits
 123              		.align	1
 124              		.global	SetWait
 125              		.syntax unified
 126              		.thumb
 127              		.thumb_func
 129              	SetWait:
ARM GAS  C:\Users\Lenovo\AppData\Local\Temp\cc1iLKwr.s 			page 4


 130              	.LVL6:
 131              	.LFB67:
  38:USER/Hardware/KEY.c **** 
  39:USER/Hardware/KEY.c **** void SetWait(uint8_t key)
  40:USER/Hardware/KEY.c **** {
 132              		.loc 1 40 1 is_stmt 1 view -0
 133              		.cfi_startproc
 134              		@ args = 0, pretend = 0, frame = 0
 135              		@ frame_needed = 0, uses_anonymous_args = 0
 136              		@ link register save eliminated.
  41:USER/Hardware/KEY.c ****     wait_time[key] = 200;
 137              		.loc 1 41 5 view .LVU28
 138              		.loc 1 41 20 is_stmt 0 view .LVU29
 139 0000 024B     		ldr	r3, .L13
 140 0002 C822     		movs	r2, #200
 141 0004 23F81020 		strh	r2, [r3, r0, lsl #1]	@ movhi
  42:USER/Hardware/KEY.c **** }
 142              		.loc 1 42 1 view .LVU30
 143 0008 7047     		bx	lr
 144              	.L14:
 145 000a 00BF     		.align	2
 146              	.L13:
 147 000c 00000000 		.word	wait_time
 148              		.cfi_endproc
 149              	.LFE67:
 151              		.section	.text.Get_KeyNum,"ax",%progbits
 152              		.align	1
 153              		.global	Get_KeyNum
 154              		.syntax unified
 155              		.thumb
 156              		.thumb_func
 158              	Get_KeyNum:
 159              	.LFB68:
  43:USER/Hardware/KEY.c **** 
  44:USER/Hardware/KEY.c **** 
  45:USER/Hardware/KEY.c **** // 定义一个函数，用于获取按键编号
  46:USER/Hardware/KEY.c **** void Get_KeyNum(void) 
  47:USER/Hardware/KEY.c **** {
 160              		.loc 1 47 1 is_stmt 1 view -0
 161              		.cfi_startproc
 162              		@ args = 0, pretend = 0, frame = 0
 163              		@ frame_needed = 0, uses_anonymous_args = 0
 164 0000 08B5     		push	{r3, lr}
 165              	.LCFI0:
 166              		.cfi_def_cfa_offset 8
 167              		.cfi_offset 3, -8
 168              		.cfi_offset 14, -4
  48:USER/Hardware/KEY.c ****     // 检测按键1是否被按下
  49:USER/Hardware/KEY.c ****     if (IF_KEY_PRESSED_1 || Wait(KEY_1)) // 读取与按键1相关联的GPIO引脚状态
 169              		.loc 1 49 5 view .LVU32
 170              		.loc 1 49 9 is_stmt 0 view .LVU33
 171 0002 0221     		movs	r1, #2
 172 0004 2648     		ldr	r0, .L29
 173 0006 FFF7FEFF 		bl	HAL_GPIO_ReadPin
 174              	.LVL7:
 175              		.loc 1 49 8 discriminator 1 view .LVU34
 176 000a 18B1     		cbz	r0, .L16
ARM GAS  C:\Users\Lenovo\AppData\Local\Temp\cc1iLKwr.s 			page 5


 177              		.loc 1 49 29 discriminator 1 view .LVU35
 178 000c 0020     		movs	r0, #0
 179 000e FFF7FEFF 		bl	Wait
 180              	.LVL8:
 181              		.loc 1 49 26 discriminator 1 view .LVU36
 182 0012 60B1     		cbz	r0, .L17
 183              	.L16:
  50:USER/Hardware/KEY.c ****     {
  51:USER/Hardware/KEY.c ****         if (Wait(KEY_1)) // 消抖结束触发
 184              		.loc 1 51 9 is_stmt 1 view .LVU37
 185              		.loc 1 51 13 is_stmt 0 view .LVU38
 186 0014 0020     		movs	r0, #0
 187 0016 FFF7FEFF 		bl	Wait
 188              	.LVL9:
 189              		.loc 1 51 12 discriminator 1 view .LVU39
 190 001a 18B1     		cbz	r0, .L18
  52:USER/Hardware/KEY.c ****         {
  53:USER/Hardware/KEY.c **** 					Key1_Num++; // 按键被按下并释放后，增加按键1的计数
 191              		.loc 1 53 6 is_stmt 1 view .LVU40
 192              		.loc 1 53 14 is_stmt 0 view .LVU41
 193 001c 214A     		ldr	r2, .L29+4
 194 001e 1368     		ldr	r3, [r2]
 195 0020 0133     		adds	r3, r3, #1
 196 0022 1360     		str	r3, [r2]
 197              	.L18:
  54:USER/Hardware/KEY.c ****         }
  55:USER/Hardware/KEY.c ****         
  56:USER/Hardware/KEY.c ****         if (IF_KEY_PRESSED_1)
 198              		.loc 1 56 9 is_stmt 1 view .LVU42
 199              		.loc 1 56 13 is_stmt 0 view .LVU43
 200 0024 0221     		movs	r1, #2
 201 0026 1E48     		ldr	r0, .L29
 202 0028 FFF7FEFF 		bl	HAL_GPIO_ReadPin
 203              	.LVL10:
 204              		.loc 1 56 12 discriminator 1 view .LVU44
 205 002c 60B3     		cbz	r0, .L26
 206              	.L17:
  57:USER/Hardware/KEY.c ****             SetWait(KEY_1);
  58:USER/Hardware/KEY.c ****     }
  59:USER/Hardware/KEY.c **** 
  60:USER/Hardware/KEY.c ****     // 检测按键2是否被按下
  61:USER/Hardware/KEY.c ****      if (IF_KEY_PRESSED_2 || Wait(KEY_2)) // 读取与按键1相关联的GPIO引脚状态
 207              		.loc 1 61 6 is_stmt 1 view .LVU45
 208              		.loc 1 61 10 is_stmt 0 view .LVU46
 209 002e 0421     		movs	r1, #4
 210 0030 1B48     		ldr	r0, .L29
 211 0032 FFF7FEFF 		bl	HAL_GPIO_ReadPin
 212              	.LVL11:
 213              		.loc 1 61 9 discriminator 1 view .LVU47
 214 0036 18B1     		cbz	r0, .L19
 215              		.loc 1 61 30 discriminator 1 view .LVU48
 216 0038 0120     		movs	r0, #1
 217 003a FFF7FEFF 		bl	Wait
 218              	.LVL12:
 219              		.loc 1 61 27 discriminator 1 view .LVU49
 220 003e 60B1     		cbz	r0, .L20
 221              	.L19:
ARM GAS  C:\Users\Lenovo\AppData\Local\Temp\cc1iLKwr.s 			page 6


  62:USER/Hardware/KEY.c ****     {
  63:USER/Hardware/KEY.c ****         if (Wait(KEY_2)) // 消抖结束触发
 222              		.loc 1 63 9 is_stmt 1 view .LVU50
 223              		.loc 1 63 13 is_stmt 0 view .LVU51
 224 0040 0120     		movs	r0, #1
 225 0042 FFF7FEFF 		bl	Wait
 226              	.LVL13:
 227              		.loc 1 63 12 discriminator 1 view .LVU52
 228 0046 18B1     		cbz	r0, .L21
  64:USER/Hardware/KEY.c ****         {
  65:USER/Hardware/KEY.c **** 					Key2_Num++; // 按键被按下并释放后，增加按键1的计数
 229              		.loc 1 65 6 is_stmt 1 view .LVU53
 230              		.loc 1 65 14 is_stmt 0 view .LVU54
 231 0048 174A     		ldr	r2, .L29+8
 232 004a 1368     		ldr	r3, [r2]
 233 004c 0133     		adds	r3, r3, #1
 234 004e 1360     		str	r3, [r2]
 235              	.L21:
  66:USER/Hardware/KEY.c ****         }
  67:USER/Hardware/KEY.c ****         
  68:USER/Hardware/KEY.c ****         if (IF_KEY_PRESSED_2)
 236              		.loc 1 68 9 is_stmt 1 view .LVU55
 237              		.loc 1 68 13 is_stmt 0 view .LVU56
 238 0050 0421     		movs	r1, #4
 239 0052 1348     		ldr	r0, .L29
 240 0054 FFF7FEFF 		bl	HAL_GPIO_ReadPin
 241              	.LVL14:
 242              		.loc 1 68 12 discriminator 1 view .LVU57
 243 0058 C8B1     		cbz	r0, .L27
 244              	.L20:
  69:USER/Hardware/KEY.c ****             SetWait(KEY_2);
  70:USER/Hardware/KEY.c ****     }
  71:USER/Hardware/KEY.c **** 
  72:USER/Hardware/KEY.c ****     // 检测按键3是否被按下
  73:USER/Hardware/KEY.c ****      if (IF_KEY_PRESSED_3 || Wait(KEY_3)) // 读取与按键1相关联的GPIO引脚状态
 245              		.loc 1 73 6 is_stmt 1 view .LVU58
 246              		.loc 1 73 10 is_stmt 0 view .LVU59
 247 005a 0821     		movs	r1, #8
 248 005c 1048     		ldr	r0, .L29
 249 005e FFF7FEFF 		bl	HAL_GPIO_ReadPin
 250              	.LVL15:
 251              		.loc 1 73 9 discriminator 1 view .LVU60
 252 0062 18B1     		cbz	r0, .L22
 253              		.loc 1 73 30 discriminator 1 view .LVU61
 254 0064 0220     		movs	r0, #2
 255 0066 FFF7FEFF 		bl	Wait
 256              	.LVL16:
 257              		.loc 1 73 27 discriminator 1 view .LVU62
 258 006a 60B1     		cbz	r0, .L15
 259              	.L22:
  74:USER/Hardware/KEY.c ****     {
  75:USER/Hardware/KEY.c ****         if (Wait(KEY_3)) // 消抖结束触发
 260              		.loc 1 75 9 is_stmt 1 view .LVU63
 261              		.loc 1 75 13 is_stmt 0 view .LVU64
 262 006c 0220     		movs	r0, #2
 263 006e FFF7FEFF 		bl	Wait
 264              	.LVL17:
ARM GAS  C:\Users\Lenovo\AppData\Local\Temp\cc1iLKwr.s 			page 7


 265              		.loc 1 75 12 discriminator 1 view .LVU65
 266 0072 18B1     		cbz	r0, .L24
  76:USER/Hardware/KEY.c ****         {
  77:USER/Hardware/KEY.c **** 					Key3_Num++; // 按键被按下并释放后，增加按键1的计数
 267              		.loc 1 77 6 is_stmt 1 view .LVU66
 268              		.loc 1 77 14 is_stmt 0 view .LVU67
 269 0074 0D4A     		ldr	r2, .L29+12
 270 0076 1368     		ldr	r3, [r2]
 271 0078 0133     		adds	r3, r3, #1
 272 007a 1360     		str	r3, [r2]
 273              	.L24:
  78:USER/Hardware/KEY.c ****         }
  79:USER/Hardware/KEY.c ****         
  80:USER/Hardware/KEY.c ****         if (IF_KEY_PRESSED_3)
 274              		.loc 1 80 9 is_stmt 1 view .LVU68
 275              		.loc 1 80 13 is_stmt 0 view .LVU69
 276 007c 0821     		movs	r1, #8
 277 007e 0848     		ldr	r0, .L29
 278 0080 FFF7FEFF 		bl	HAL_GPIO_ReadPin
 279              	.LVL18:
 280              		.loc 1 80 12 discriminator 1 view .LVU70
 281 0084 38B1     		cbz	r0, .L28
 282              	.L15:
  81:USER/Hardware/KEY.c ****             SetWait(KEY_3);
  82:USER/Hardware/KEY.c ****     }
  83:USER/Hardware/KEY.c **** }
 283              		.loc 1 83 1 view .LVU71
 284 0086 08BD     		pop	{r3, pc}
 285              	.L26:
  57:USER/Hardware/KEY.c ****     }
 286              		.loc 1 57 13 is_stmt 1 view .LVU72
 287 0088 FFF7FEFF 		bl	SetWait
 288              	.LVL19:
 289 008c CFE7     		b	.L17
 290              	.L27:
  69:USER/Hardware/KEY.c ****     }
 291              		.loc 1 69 13 view .LVU73
 292 008e 0120     		movs	r0, #1
 293 0090 FFF7FEFF 		bl	SetWait
 294              	.LVL20:
 295 0094 E1E7     		b	.L20
 296              	.L28:
  81:USER/Hardware/KEY.c ****             SetWait(KEY_3);
 297              		.loc 1 81 13 view .LVU74
 298 0096 0220     		movs	r0, #2
 299 0098 FFF7FEFF 		bl	SetWait
 300              	.LVL21:
 301              		.loc 1 83 1 is_stmt 0 view .LVU75
 302 009c F3E7     		b	.L15
 303              	.L30:
 304 009e 00BF     		.align	2
 305              	.L29:
 306 00a0 00100140 		.word	1073811456
 307 00a4 00000000 		.word	Key1_Num
 308 00a8 00000000 		.word	Key2_Num
 309 00ac 00000000 		.word	Key3_Num
 310              		.cfi_endproc
ARM GAS  C:\Users\Lenovo\AppData\Local\Temp\cc1iLKwr.s 			page 8


 311              	.LFE68:
 313              		.global	wait_time
 314              		.section	.bss.wait_time,"aw",%nobits
 315              		.align	2
 318              	wait_time:
 319 0000 00000000 		.space	10
 319      00000000 
 319      0000
 320              		.global	Key3_Num
 321              		.section	.bss.Key3_Num,"aw",%nobits
 322              		.align	2
 325              	Key3_Num:
 326 0000 00000000 		.space	4
 327              		.global	Key2_Num
 328              		.section	.bss.Key2_Num,"aw",%nobits
 329              		.align	2
 332              	Key2_Num:
 333 0000 00000000 		.space	4
 334              		.global	Key1_Num
 335              		.section	.bss.Key1_Num,"aw",%nobits
 336              		.align	2
 339              	Key1_Num:
 340 0000 00000000 		.space	4
 341              		.text
 342              	.Letext0:
 343              		.file 2 "D:/arm-none-eabi-gcc/arm-none-eabi/include/machine/_default_types.h"
 344              		.file 3 "D:/arm-none-eabi-gcc/arm-none-eabi/include/sys/_stdint.h"
 345              		.file 4 "Drivers/CMSIS/Device/ST/STM32F1xx/Include/stm32f103xe.h"
 346              		.file 5 "Drivers/STM32F1xx_HAL_Driver/Inc/stm32f1xx_hal_gpio.h"
 347              		.file 6 "USER/Hardware/KEY.h"
ARM GAS  C:\Users\Lenovo\AppData\Local\Temp\cc1iLKwr.s 			page 9

