ARM GAS  C:\Users\Lenovo\AppData\Local\Temp\ccJeDxdD.s 			page 1


   1              		.cpu cortex-m3
   2              		.arch armv7-m
   3              		.fpu softvfp
   4              		.eabi_attribute 20, 1
   5              		.eabi_attribute 21, 1
   6              		.eabi_attribute 23, 3
   7              		.eabi_attribute 24, 1
   8              		.eabi_attribute 25, 1
   9              		.eabi_attribute 26, 1
  10              		.eabi_attribute 30, 1
  11              		.eabi_attribute 34, 1
  12              		.eabi_attribute 18, 4
  13              		.file	"main.c"
  14              		.text
  15              	.Ltext0:
  16              		.cfi_sections	.debug_frame
  17              		.file 1 "Core/Src/main.c"
  18              		.section	.text.HAL_UART_RxCpltCallback,"ax",%progbits
  19              		.align	1
  20              		.global	HAL_UART_RxCpltCallback
  21              		.syntax unified
  22              		.thumb
  23              		.thumb_func
  25              	HAL_UART_RxCpltCallback:
  26              	.LVL0:
  27              	.LFB70:
   1:Core/Src/main.c **** /* USER CODE BEGIN Header */
   2:Core/Src/main.c **** /**
   3:Core/Src/main.c ****   ******************************************************************************
   4:Core/Src/main.c ****   * @file           : main.c
   5:Core/Src/main.c ****   * @brief          : Main program body
   6:Core/Src/main.c ****   ******************************************************************************
   7:Core/Src/main.c ****   * @attention
   8:Core/Src/main.c ****   *
   9:Core/Src/main.c ****   * Copyright (c) 2024 STMicroelectronics.
  10:Core/Src/main.c ****   * All rights reserved.
  11:Core/Src/main.c ****   *
  12:Core/Src/main.c ****   * This software is licensed under terms that can be found in the LICENSE file
  13:Core/Src/main.c ****   * in the root directory of this software component.
  14:Core/Src/main.c ****   * If no LICENSE file comes with this software, it is provided AS-IS.
  15:Core/Src/main.c ****   *
  16:Core/Src/main.c ****   ******************************************************************************
  17:Core/Src/main.c ****   */
  18:Core/Src/main.c **** /* USER CODE END Header */
  19:Core/Src/main.c **** /* Includes ------------------------------------------------------------------*/
  20:Core/Src/main.c **** #include "main.h"
  21:Core/Src/main.c **** #include "tim.h"
  22:Core/Src/main.c **** #include "usart.h"
  23:Core/Src/main.c **** #include "gpio.h"
  24:Core/Src/main.c **** 
  25:Core/Src/main.c **** /* Private includes ----------------------------------------------------------*/
  26:Core/Src/main.c **** /* USER CODE BEGIN Includes */
  27:Core/Src/main.c **** #include "pid.h"
  28:Core/Src/main.c **** #include "RGB.h"
  29:Core/Src/main.c **** #include "KEY.h"
  30:Core/Src/main.c **** #include "bsp_OLED.h"
  31:Core/Src/main.c **** #include "Motor.h" 
ARM GAS  C:\Users\Lenovo\AppData\Local\Temp\ccJeDxdD.s 			page 2


  32:Core/Src/main.c **** #include "Encoder.h"
  33:Core/Src/main.c **** #include <stdio.h>
  34:Core/Src/main.c **** /* USER CODE END Includes */
  35:Core/Src/main.c **** 
  36:Core/Src/main.c **** /* Private typedef -----------------------------------------------------------*/
  37:Core/Src/main.c **** /* USER CODE BEGIN PTD */
  38:Core/Src/main.c **** 
  39:Core/Src/main.c **** /* USER CODE END PTD */
  40:Core/Src/main.c **** 
  41:Core/Src/main.c **** /* Private define ------------------------------------------------------------*/
  42:Core/Src/main.c **** /* USER CODE BEGIN PD */
  43:Core/Src/main.c **** 
  44:Core/Src/main.c **** /* USER CODE END PD */
  45:Core/Src/main.c **** 
  46:Core/Src/main.c **** /* Private macro -------------------------------------------------------------*/
  47:Core/Src/main.c **** /* USER CODE BEGIN PM */
  48:Core/Src/main.c **** 
  49:Core/Src/main.c **** /* USER CODE END PM */
  50:Core/Src/main.c **** 
  51:Core/Src/main.c **** /* Private variables ---------------------------------------------------------*/
  52:Core/Src/main.c **** 
  53:Core/Src/main.c **** /* USER CODE BEGIN PV */
  54:Core/Src/main.c **** int   Actual_Speed=0;
  55:Core/Src/main.c **** 
  56:Core/Src/main.c **** /* USER CODE END PV */
  57:Core/Src/main.c **** 
  58:Core/Src/main.c **** /* Private function prototypes -----------------------------------------------*/
  59:Core/Src/main.c **** void SystemClock_Config(void);
  60:Core/Src/main.c **** /* USER CODE BEGIN PFP */
  61:Core/Src/main.c **** 
  62:Core/Src/main.c **** /* USER CODE END PFP */
  63:Core/Src/main.c **** 
  64:Core/Src/main.c **** /* Private user code ---------------------------------------------------------*/
  65:Core/Src/main.c **** /* USER CODE BEGIN 0 */
  66:Core/Src/main.c **** uint8_t rec_tra_data[1]; // é”Ÿæ–¤æ‹·é”Ÿæ–¤æ‹·ä¸€é”Ÿæ–¤æ‹·é”Ÿæ–¤æ‹·é”Ÿä»‹ï¼Œé”Ÿæ–¤æ‹·é”ŸèŠ‚è¾¾æ‹·æ²
  67:Core/Src/main.c **** uint8_t Bluetooth_rec_tra_data[1]; // é”Ÿæ–¤æ‹·é”Ÿæ–¤æ‹·ä¸€é”Ÿæ–¤æ‹·é”Ÿæ–¤æ‹·é”Ÿä»‹ï¼Œé”Ÿæ–¤æ‹·é”Ÿè
  68:Core/Src/main.c **** char Temp_chr[100];
  69:Core/Src/main.c **** pid_t moterB_pid ;
  70:Core/Src/main.c **** 
  71:Core/Src/main.c **** /* USER CODE END 0 */
  72:Core/Src/main.c **** 
  73:Core/Src/main.c **** /**
  74:Core/Src/main.c ****   * @brief  The application entry point.
  75:Core/Src/main.c ****   * @retval int
  76:Core/Src/main.c ****   */
  77:Core/Src/main.c **** int main(void)
  78:Core/Src/main.c **** {
  79:Core/Src/main.c **** 
  80:Core/Src/main.c ****   /* USER CODE BEGIN 1 */
  81:Core/Src/main.c **** 
  82:Core/Src/main.c ****   /* USER CODE END 1 */
  83:Core/Src/main.c **** 
  84:Core/Src/main.c ****   /* MCU Configuration--------------------------------------------------------*/
  85:Core/Src/main.c **** 
  86:Core/Src/main.c ****   /* Reset of all peripherals, Initializes the Flash interface and the Systick. */
  87:Core/Src/main.c ****   HAL_Init();
  88:Core/Src/main.c **** 
ARM GAS  C:\Users\Lenovo\AppData\Local\Temp\ccJeDxdD.s 			page 3


  89:Core/Src/main.c ****   /* USER CODE BEGIN Init */
  90:Core/Src/main.c **** 
  91:Core/Src/main.c ****   /* USER CODE END Init */
  92:Core/Src/main.c **** 
  93:Core/Src/main.c ****   /* Configure the system clock */
  94:Core/Src/main.c ****   SystemClock_Config();
  95:Core/Src/main.c **** 
  96:Core/Src/main.c ****   /* USER CODE BEGIN SysInit */
  97:Core/Src/main.c **** 
  98:Core/Src/main.c ****   /* USER CODE END SysInit */
  99:Core/Src/main.c **** 
 100:Core/Src/main.c ****   /* Initialize all configured peripherals */
 101:Core/Src/main.c ****   MX_GPIO_Init();
 102:Core/Src/main.c ****   MX_USART1_UART_Init();
 103:Core/Src/main.c ****   MX_USART2_UART_Init();
 104:Core/Src/main.c ****   MX_TIM8_Init();
 105:Core/Src/main.c ****   MX_TIM1_Init();
 106:Core/Src/main.c ****   MX_TIM3_Init();
 107:Core/Src/main.c ****   MX_TIM4_Init();
 108:Core/Src/main.c ****   MX_TIM5_Init();
 109:Core/Src/main.c ****   /* USER CODE BEGIN 2 */
 110:Core/Src/main.c **** 	OLED_Init();
 111:Core/Src/main.c **** 	Motor_Init();
 112:Core/Src/main.c ****   Key_Init (); 
 113:Core/Src/main.c **** 	
 114:Core/Src/main.c **** 	
 115:Core/Src/main.c ****   HAL_UART_Transmit(&huart1, "Hello World", sizeof("Hello World")-1, 0XFFFF); 
 116:Core/Src/main.c ****   HAL_UART_Receive_IT(&huart1, (uint8_t *)&rec_tra_data, 1);
 117:Core/Src/main.c **** 	
 118:Core/Src/main.c ****   HAL_UART_Transmit(&huart2, "Hello Bluetooth", sizeof("Hello Bluetooth")-1, 0XFFFF);
 119:Core/Src/main.c ****   HAL_UART_Receive_IT(&huart2, (uint8_t *)&Bluetooth_rec_tra_data, 1); 
 120:Core/Src/main.c **** 	
 121:Core/Src/main.c ****   Encoder_Init();	
 122:Core/Src/main.c **** 	pid_set(&moterB_pid, 0.68, 0.2, 0.0, 100, 10);
 123:Core/Src/main.c ****   /* USER CODE END 2 */
 124:Core/Src/main.c **** 
 125:Core/Src/main.c ****   /* Infinite loop */
 126:Core/Src/main.c ****   /* USER CODE BEGIN WHILE */
 127:Core/Src/main.c ****   while (1)
 128:Core/Src/main.c ****   {
 129:Core/Src/main.c **** 		
 130:Core/Src/main.c **** 		MotorB_Speed(pid_cal(&moterB_pid,GetMotorSpeed(1),0));
 131:Core/Src/main.c ****     sprintf(Temp_chr,"A:%f",GetMotorSpeed(1));
 132:Core/Src/main.c **** 		OLED_String(1,16,Temp_chr,16);	 
 133:Core/Src/main.c **** 	  HAL_Delay(20);
 134:Core/Src/main.c ****     /* USER CODE END WHILE */
 135:Core/Src/main.c **** 
 136:Core/Src/main.c ****     /* USER CODE BEGIN 3 */
 137:Core/Src/main.c ****   }
 138:Core/Src/main.c ****   /* USER CODE END 3 */
 139:Core/Src/main.c **** }
 140:Core/Src/main.c **** 
 141:Core/Src/main.c **** /**
 142:Core/Src/main.c ****   * @brief System Clock Configuration
 143:Core/Src/main.c ****   * @retval None
 144:Core/Src/main.c ****   */
 145:Core/Src/main.c **** void SystemClock_Config(void)
ARM GAS  C:\Users\Lenovo\AppData\Local\Temp\ccJeDxdD.s 			page 4


 146:Core/Src/main.c **** {
 147:Core/Src/main.c ****   RCC_OscInitTypeDef RCC_OscInitStruct = {0};
 148:Core/Src/main.c ****   RCC_ClkInitTypeDef RCC_ClkInitStruct = {0};
 149:Core/Src/main.c **** 
 150:Core/Src/main.c ****   /** Initializes the RCC Oscillators according to the specified parameters
 151:Core/Src/main.c ****   * in the RCC_OscInitTypeDef structure.
 152:Core/Src/main.c ****   */
 153:Core/Src/main.c ****   RCC_OscInitStruct.OscillatorType = RCC_OSCILLATORTYPE_HSE;
 154:Core/Src/main.c ****   RCC_OscInitStruct.HSEState = RCC_HSE_ON;
 155:Core/Src/main.c ****   RCC_OscInitStruct.HSEPredivValue = RCC_HSE_PREDIV_DIV1;
 156:Core/Src/main.c ****   RCC_OscInitStruct.HSIState = RCC_HSI_ON;
 157:Core/Src/main.c ****   RCC_OscInitStruct.PLL.PLLState = RCC_PLL_ON;
 158:Core/Src/main.c ****   RCC_OscInitStruct.PLL.PLLSource = RCC_PLLSOURCE_HSE;
 159:Core/Src/main.c ****   RCC_OscInitStruct.PLL.PLLMUL = RCC_PLL_MUL9;
 160:Core/Src/main.c ****   if (HAL_RCC_OscConfig(&RCC_OscInitStruct) != HAL_OK)
 161:Core/Src/main.c ****   {
 162:Core/Src/main.c ****     Error_Handler();
 163:Core/Src/main.c ****   }
 164:Core/Src/main.c **** 
 165:Core/Src/main.c ****   /** Initializes the CPU, AHB and APB buses clocks
 166:Core/Src/main.c ****   */
 167:Core/Src/main.c ****   RCC_ClkInitStruct.ClockType = RCC_CLOCKTYPE_HCLK|RCC_CLOCKTYPE_SYSCLK
 168:Core/Src/main.c ****                               |RCC_CLOCKTYPE_PCLK1|RCC_CLOCKTYPE_PCLK2;
 169:Core/Src/main.c ****   RCC_ClkInitStruct.SYSCLKSource = RCC_SYSCLKSOURCE_PLLCLK;
 170:Core/Src/main.c ****   RCC_ClkInitStruct.AHBCLKDivider = RCC_SYSCLK_DIV1;
 171:Core/Src/main.c ****   RCC_ClkInitStruct.APB1CLKDivider = RCC_HCLK_DIV2;
 172:Core/Src/main.c ****   RCC_ClkInitStruct.APB2CLKDivider = RCC_HCLK_DIV1;
 173:Core/Src/main.c **** 
 174:Core/Src/main.c ****   if (HAL_RCC_ClockConfig(&RCC_ClkInitStruct, FLASH_LATENCY_2) != HAL_OK)
 175:Core/Src/main.c ****   {
 176:Core/Src/main.c ****     Error_Handler();
 177:Core/Src/main.c ****   }
 178:Core/Src/main.c **** }
 179:Core/Src/main.c **** 
 180:Core/Src/main.c **** /* USER CODE BEGIN 4 */
 181:Core/Src/main.c **** void HAL_UART_RxCpltCallback(UART_HandleTypeDef *huart)
 182:Core/Src/main.c **** {
  28              		.loc 1 182 1 view -0
  29              		.cfi_startproc
  30              		@ args = 0, pretend = 0, frame = 0
  31              		@ frame_needed = 0, uses_anonymous_args = 0
  32              		.loc 1 182 1 is_stmt 0 view .LVU1
  33 0000 70B5     		push	{r4, r5, r6, lr}
  34              	.LCFI0:
  35              		.cfi_def_cfa_offset 16
  36              		.cfi_offset 4, -16
  37              		.cfi_offset 5, -12
  38              		.cfi_offset 6, -8
  39              		.cfi_offset 14, -4
  40 0002 0446     		mov	r4, r0
 183:Core/Src/main.c ****   // é”Ÿæ–¤æ‹·æ¦‡î‚¬æ‹·é”Ÿæ–¤æ‹·UARTé”Ÿæ–¤æ‹·é”Ÿæ–¤æ‹·æ¬ é”Ÿè½¿çŒ¦uart1é”Ÿæ–¤æ‹·é”Ÿæ–¤æ‹·é”Ÿè§’å‡¤æ
 184:Core/Src/main.c ****   if (huart == &huart1) 
  41              		.loc 1 184 3 is_stmt 1 view .LVU2
  42              		.loc 1 184 6 is_stmt 0 view .LVU3
  43 0004 124B     		ldr	r3, .L7
  44 0006 9842     		cmp	r0, r3
  45 0008 03D0     		beq	.L5
ARM GAS  C:\Users\Lenovo\AppData\Local\Temp\ccJeDxdD.s 			page 5


  46              	.LVL1:
  47              	.L2:
 185:Core/Src/main.c ****   {
 186:Core/Src/main.c ****     // é”Ÿæ–¤æ‹·é”Ÿæ–¤æ‹·é”ŸçµŒSART1é”Ÿæ–¤æ‹·é”Ÿå«æ–­ï½æ‹·é”Ÿæ´¥å°†æ–¤æ‹·é”Ÿç§¸ç¢‰æ‹·é”Ÿæ–¤æ‹·é”Ÿ
 187:Core/Src/main.c ****     // é”Ÿæ–¤æ‹·é”Ÿæ–¤æ‹·é”Ÿæ–¤æ‹·é”Ÿçµ©ec_tra_dataé”Ÿæ–¤æ‹·ä¸€é”Ÿæ–¤æ‹·å…¨é”Ÿè¡—æ†‹æ‹·é”Ÿæ–¤æ‹·é”Ÿ
 188:Core/Src/main.c ****     HAL_UART_Transmit(&huart1, (uint8_t *)rec_tra_data, 1, 0xffff); 
 189:Core/Src/main.c ****     
 190:Core/Src/main.c ****     // é”ŸåŠ«æ¬¡åŒ¡æ‹·é”Ÿæ–¤æ‹·é”Ÿæ–¤æ‹·é”ŸèŠ‚æ–¤æ‹·é”Ÿæ–¤æ‹·é”Ÿå«æ–­ï½æ‹·å‡†é”Ÿæ–¤æ‹·é”Ÿæ–¤æ‹·é”
 191:Core/Src/main.c ****     // é”Ÿæ–¤æ‹·é”Ÿæ–¤æ‹·é”Ÿæ–¤æ‹·é”ŸçŸ«ç­¹æ‹·æ—¶æ—¶é”Ÿæ–¤æ‹·ä¸º0xffffé”Ÿæ–¤æ‹·é”Ÿæ–¤æ‹·é”Ÿæ–¤æ‹·é”
 192:Core/Src/main.c ****     HAL_UART_Receive_IT(&huart1, (uint8_t *)&rec_tra_data, 1); 
 193:Core/Src/main.c ****   }
 194:Core/Src/main.c **** 	
 195:Core/Src/main.c **** 	
 196:Core/Src/main.c ****   // é”Ÿæ–¤æ‹·æ¦‡î‚¬æ‹·é”Ÿæ–¤æ‹·UARTé”Ÿæ–¤æ‹·é”Ÿæ–¤æ‹·æ¬ é”Ÿè½¿çŒ¦uart2é”Ÿæ–¤æ‹·é”Ÿæ–¤æ‹·é”Ÿè§’å‡¤æ
 197:Core/Src/main.c ****   if (huart == &huart2) 
  48              		.loc 1 197 3 is_stmt 1 view .LVU4
  49              		.loc 1 197 6 is_stmt 0 view .LVU5
  50 000a 124B     		ldr	r3, .L7+4
  51 000c 9C42     		cmp	r4, r3
  52 000e 0FD0     		beq	.L6
  53              	.LVL2:
  54              	.L1:
 198:Core/Src/main.c ****   {
 199:Core/Src/main.c ****     // é”Ÿæ–¤æ‹·é”Ÿæ–¤æ‹·é”ŸçµŒSART2é”Ÿæ–¤æ‹·é”Ÿå«æ–­ï½æ‹·é”Ÿæ´¥å°†æ–¤æ‹·é”Ÿç§¸ç¢‰æ‹·é”Ÿæ–¤æ‹·é”Ÿ
 200:Core/Src/main.c ****     // é”Ÿæ–¤æ‹·é”Ÿæ–¤æ‹·é”Ÿæ–¤æ‹·é”Ÿç´¹luetooth_rec_tra_dataé”Ÿæ–¤æ‹·ä¸€é”Ÿæ–¤æ‹·å…¨é”Ÿè¡—æ†‹æ‹·é”
 201:Core/Src/main.c ****     HAL_UART_Transmit(&huart2, (uint8_t *)Bluetooth_rec_tra_data, 1, 0xffff); 
 202:Core/Src/main.c ****     
 203:Core/Src/main.c ****     // é”ŸåŠ«æ¬¡åŒ¡æ‹·é”Ÿæ–¤æ‹·é”Ÿæ–¤æ‹·é”ŸèŠ‚æ–¤æ‹·é”Ÿæ–¤æ‹·é”Ÿå«æ–­ï½æ‹·å‡†é”Ÿæ–¤æ‹·é”Ÿæ–¤æ‹·é”
 204:Core/Src/main.c ****     // é”Ÿæ–¤æ‹·é”Ÿæ–¤æ‹·é”Ÿæ–¤æ‹·é”ŸçŸ«ç­¹æ‹·æ—¶æ—¶é”Ÿæ–¤æ‹·ä¸º0xffffé”Ÿæ–¤æ‹·é”Ÿæ–¤æ‹·é”Ÿæ–¤æ‹·é”
 205:Core/Src/main.c ****     HAL_UART_Receive_IT(&huart2, (uint8_t *)&Bluetooth_rec_tra_data, 1); 
 206:Core/Src/main.c ****   }
 207:Core/Src/main.c **** }
  55              		.loc 1 207 1 view .LVU6
  56 0010 70BD     		pop	{r4, r5, r6, pc}
  57              	.LVL3:
  58              	.L5:
 188:Core/Src/main.c ****     
  59              		.loc 1 188 5 is_stmt 1 view .LVU7
  60 0012 114E     		ldr	r6, .L7+8
  61 0014 1D46     		mov	r5, r3
  62 0016 4FF6FF73 		movw	r3, #65535
  63 001a 0122     		movs	r2, #1
  64 001c 3146     		mov	r1, r6
  65 001e 2846     		mov	r0, r5
  66              	.LVL4:
 188:Core/Src/main.c ****     
  67              		.loc 1 188 5 is_stmt 0 view .LVU8
  68 0020 FFF7FEFF 		bl	HAL_UART_Transmit
  69              	.LVL5:
 192:Core/Src/main.c ****   }
  70              		.loc 1 192 5 is_stmt 1 view .LVU9
  71 0024 0122     		movs	r2, #1
  72 0026 3146     		mov	r1, r6
  73 0028 2846     		mov	r0, r5
  74 002a FFF7FEFF 		bl	HAL_UART_Receive_IT
  75              	.LVL6:
  76 002e ECE7     		b	.L2
ARM GAS  C:\Users\Lenovo\AppData\Local\Temp\ccJeDxdD.s 			page 6


  77              	.L6:
 201:Core/Src/main.c ****     
  78              		.loc 1 201 5 view .LVU10
  79 0030 0A4D     		ldr	r5, .L7+12
  80 0032 1C46     		mov	r4, r3
  81              	.LVL7:
 201:Core/Src/main.c ****     
  82              		.loc 1 201 5 is_stmt 0 view .LVU11
  83 0034 4FF6FF73 		movw	r3, #65535
  84 0038 0122     		movs	r2, #1
  85 003a 2946     		mov	r1, r5
  86 003c 2046     		mov	r0, r4
  87 003e FFF7FEFF 		bl	HAL_UART_Transmit
  88              	.LVL8:
 205:Core/Src/main.c ****   }
  89              		.loc 1 205 5 is_stmt 1 view .LVU12
  90 0042 0122     		movs	r2, #1
  91 0044 2946     		mov	r1, r5
  92 0046 2046     		mov	r0, r4
  93 0048 FFF7FEFF 		bl	HAL_UART_Receive_IT
  94              	.LVL9:
  95              		.loc 1 207 1 is_stmt 0 view .LVU13
  96 004c E0E7     		b	.L1
  97              	.L8:
  98 004e 00BF     		.align	2
  99              	.L7:
 100 0050 00000000 		.word	huart1
 101 0054 00000000 		.word	huart2
 102 0058 00000000 		.word	rec_tra_data
 103 005c 00000000 		.word	Bluetooth_rec_tra_data
 104              		.cfi_endproc
 105              	.LFE70:
 107              		.section	.text.Error_Handler,"ax",%progbits
 108              		.align	1
 109              		.global	Error_Handler
 110              		.syntax unified
 111              		.thumb
 112              		.thumb_func
 114              	Error_Handler:
 115              	.LFB71:
 208:Core/Src/main.c **** /* USER CODE END 4 */
 209:Core/Src/main.c **** 
 210:Core/Src/main.c **** /**
 211:Core/Src/main.c ****   * @brief  This function is executed in case of error occurrence.
 212:Core/Src/main.c ****   * @retval None
 213:Core/Src/main.c ****   */
 214:Core/Src/main.c **** void Error_Handler(void)
 215:Core/Src/main.c **** {
 116              		.loc 1 215 1 is_stmt 1 view -0
 117              		.cfi_startproc
 118              		@ Volatile: function does not return.
 119              		@ args = 0, pretend = 0, frame = 0
 120              		@ frame_needed = 0, uses_anonymous_args = 0
 121              		@ link register save eliminated.
 216:Core/Src/main.c ****   /* USER CODE BEGIN Error_Handler_Debug */
 217:Core/Src/main.c ****   /* User can add his own implementation to report the HAL error return state */
 218:Core/Src/main.c ****   __disable_irq();
ARM GAS  C:\Users\Lenovo\AppData\Local\Temp\ccJeDxdD.s 			page 7


 122              		.loc 1 218 3 view .LVU15
 123              	.LBB4:
 124              	.LBI4:
 125              		.file 2 "Drivers/CMSIS/Include/cmsis_gcc.h"
   1:Drivers/CMSIS/Include/cmsis_gcc.h **** /**************************************************************************//**
   2:Drivers/CMSIS/Include/cmsis_gcc.h ****  * @file     cmsis_gcc.h
   3:Drivers/CMSIS/Include/cmsis_gcc.h ****  * @brief    CMSIS compiler GCC header file
   4:Drivers/CMSIS/Include/cmsis_gcc.h ****  * @version  V5.0.4
   5:Drivers/CMSIS/Include/cmsis_gcc.h ****  * @date     09. April 2018
   6:Drivers/CMSIS/Include/cmsis_gcc.h ****  ******************************************************************************/
   7:Drivers/CMSIS/Include/cmsis_gcc.h **** /*
   8:Drivers/CMSIS/Include/cmsis_gcc.h ****  * Copyright (c) 2009-2018 Arm Limited. All rights reserved.
   9:Drivers/CMSIS/Include/cmsis_gcc.h ****  *
  10:Drivers/CMSIS/Include/cmsis_gcc.h ****  * SPDX-License-Identifier: Apache-2.0
  11:Drivers/CMSIS/Include/cmsis_gcc.h ****  *
  12:Drivers/CMSIS/Include/cmsis_gcc.h ****  * Licensed under the Apache License, Version 2.0 (the License); you may
  13:Drivers/CMSIS/Include/cmsis_gcc.h ****  * not use this file except in compliance with the License.
  14:Drivers/CMSIS/Include/cmsis_gcc.h ****  * You may obtain a copy of the License at
  15:Drivers/CMSIS/Include/cmsis_gcc.h ****  *
  16:Drivers/CMSIS/Include/cmsis_gcc.h ****  * www.apache.org/licenses/LICENSE-2.0
  17:Drivers/CMSIS/Include/cmsis_gcc.h ****  *
  18:Drivers/CMSIS/Include/cmsis_gcc.h ****  * Unless required by applicable law or agreed to in writing, software
  19:Drivers/CMSIS/Include/cmsis_gcc.h ****  * distributed under the License is distributed on an AS IS BASIS, WITHOUT
  20:Drivers/CMSIS/Include/cmsis_gcc.h ****  * WARRANTIES OR CONDITIONS OF ANY KIND, either express or implied.
  21:Drivers/CMSIS/Include/cmsis_gcc.h ****  * See the License for the specific language governing permissions and
  22:Drivers/CMSIS/Include/cmsis_gcc.h ****  * limitations under the License.
  23:Drivers/CMSIS/Include/cmsis_gcc.h ****  */
  24:Drivers/CMSIS/Include/cmsis_gcc.h **** 
  25:Drivers/CMSIS/Include/cmsis_gcc.h **** #ifndef __CMSIS_GCC_H
  26:Drivers/CMSIS/Include/cmsis_gcc.h **** #define __CMSIS_GCC_H
  27:Drivers/CMSIS/Include/cmsis_gcc.h **** 
  28:Drivers/CMSIS/Include/cmsis_gcc.h **** /* ignore some GCC warnings */
  29:Drivers/CMSIS/Include/cmsis_gcc.h **** #pragma GCC diagnostic push
  30:Drivers/CMSIS/Include/cmsis_gcc.h **** #pragma GCC diagnostic ignored "-Wsign-conversion"
  31:Drivers/CMSIS/Include/cmsis_gcc.h **** #pragma GCC diagnostic ignored "-Wconversion"
  32:Drivers/CMSIS/Include/cmsis_gcc.h **** #pragma GCC diagnostic ignored "-Wunused-parameter"
  33:Drivers/CMSIS/Include/cmsis_gcc.h **** 
  34:Drivers/CMSIS/Include/cmsis_gcc.h **** /* Fallback for __has_builtin */
  35:Drivers/CMSIS/Include/cmsis_gcc.h **** #ifndef __has_builtin
  36:Drivers/CMSIS/Include/cmsis_gcc.h ****   #define __has_builtin(x) (0)
  37:Drivers/CMSIS/Include/cmsis_gcc.h **** #endif
  38:Drivers/CMSIS/Include/cmsis_gcc.h **** 
  39:Drivers/CMSIS/Include/cmsis_gcc.h **** /* CMSIS compiler specific defines */
  40:Drivers/CMSIS/Include/cmsis_gcc.h **** #ifndef   __ASM
  41:Drivers/CMSIS/Include/cmsis_gcc.h ****   #define __ASM                                  __asm
  42:Drivers/CMSIS/Include/cmsis_gcc.h **** #endif
  43:Drivers/CMSIS/Include/cmsis_gcc.h **** #ifndef   __INLINE
  44:Drivers/CMSIS/Include/cmsis_gcc.h ****   #define __INLINE                               inline
  45:Drivers/CMSIS/Include/cmsis_gcc.h **** #endif
  46:Drivers/CMSIS/Include/cmsis_gcc.h **** #ifndef   __STATIC_INLINE
  47:Drivers/CMSIS/Include/cmsis_gcc.h ****   #define __STATIC_INLINE                        static inline
  48:Drivers/CMSIS/Include/cmsis_gcc.h **** #endif
  49:Drivers/CMSIS/Include/cmsis_gcc.h **** #ifndef   __STATIC_FORCEINLINE                 
  50:Drivers/CMSIS/Include/cmsis_gcc.h ****   #define __STATIC_FORCEINLINE                   __attribute__((always_inline)) static inline
  51:Drivers/CMSIS/Include/cmsis_gcc.h **** #endif                                           
  52:Drivers/CMSIS/Include/cmsis_gcc.h **** #ifndef   __NO_RETURN
  53:Drivers/CMSIS/Include/cmsis_gcc.h ****   #define __NO_RETURN                            __attribute__((__noreturn__))
ARM GAS  C:\Users\Lenovo\AppData\Local\Temp\ccJeDxdD.s 			page 8


  54:Drivers/CMSIS/Include/cmsis_gcc.h **** #endif
  55:Drivers/CMSIS/Include/cmsis_gcc.h **** #ifndef   __USED
  56:Drivers/CMSIS/Include/cmsis_gcc.h ****   #define __USED                                 __attribute__((used))
  57:Drivers/CMSIS/Include/cmsis_gcc.h **** #endif
  58:Drivers/CMSIS/Include/cmsis_gcc.h **** #ifndef   __WEAK
  59:Drivers/CMSIS/Include/cmsis_gcc.h ****   #define __WEAK                                 __attribute__((weak))
  60:Drivers/CMSIS/Include/cmsis_gcc.h **** #endif
  61:Drivers/CMSIS/Include/cmsis_gcc.h **** #ifndef   __PACKED
  62:Drivers/CMSIS/Include/cmsis_gcc.h ****   #define __PACKED                               __attribute__((packed, aligned(1)))
  63:Drivers/CMSIS/Include/cmsis_gcc.h **** #endif
  64:Drivers/CMSIS/Include/cmsis_gcc.h **** #ifndef   __PACKED_STRUCT
  65:Drivers/CMSIS/Include/cmsis_gcc.h ****   #define __PACKED_STRUCT                        struct __attribute__((packed, aligned(1)))
  66:Drivers/CMSIS/Include/cmsis_gcc.h **** #endif
  67:Drivers/CMSIS/Include/cmsis_gcc.h **** #ifndef   __PACKED_UNION
  68:Drivers/CMSIS/Include/cmsis_gcc.h ****   #define __PACKED_UNION                         union __attribute__((packed, aligned(1)))
  69:Drivers/CMSIS/Include/cmsis_gcc.h **** #endif
  70:Drivers/CMSIS/Include/cmsis_gcc.h **** #ifndef   __UNALIGNED_UINT32        /* deprecated */
  71:Drivers/CMSIS/Include/cmsis_gcc.h ****   #pragma GCC diagnostic push
  72:Drivers/CMSIS/Include/cmsis_gcc.h ****   #pragma GCC diagnostic ignored "-Wpacked"
  73:Drivers/CMSIS/Include/cmsis_gcc.h ****   #pragma GCC diagnostic ignored "-Wattributes"
  74:Drivers/CMSIS/Include/cmsis_gcc.h ****   struct __attribute__((packed)) T_UINT32 { uint32_t v; };
  75:Drivers/CMSIS/Include/cmsis_gcc.h ****   #pragma GCC diagnostic pop
  76:Drivers/CMSIS/Include/cmsis_gcc.h ****   #define __UNALIGNED_UINT32(x)                  (((struct T_UINT32 *)(x))->v)
  77:Drivers/CMSIS/Include/cmsis_gcc.h **** #endif
  78:Drivers/CMSIS/Include/cmsis_gcc.h **** #ifndef   __UNALIGNED_UINT16_WRITE
  79:Drivers/CMSIS/Include/cmsis_gcc.h ****   #pragma GCC diagnostic push
  80:Drivers/CMSIS/Include/cmsis_gcc.h ****   #pragma GCC diagnostic ignored "-Wpacked"
  81:Drivers/CMSIS/Include/cmsis_gcc.h ****   #pragma GCC diagnostic ignored "-Wattributes"
  82:Drivers/CMSIS/Include/cmsis_gcc.h ****   __PACKED_STRUCT T_UINT16_WRITE { uint16_t v; };
  83:Drivers/CMSIS/Include/cmsis_gcc.h ****   #pragma GCC diagnostic pop
  84:Drivers/CMSIS/Include/cmsis_gcc.h ****   #define __UNALIGNED_UINT16_WRITE(addr, val)    (void)((((struct T_UINT16_WRITE *)(void *)(addr))-
  85:Drivers/CMSIS/Include/cmsis_gcc.h **** #endif
  86:Drivers/CMSIS/Include/cmsis_gcc.h **** #ifndef   __UNALIGNED_UINT16_READ
  87:Drivers/CMSIS/Include/cmsis_gcc.h ****   #pragma GCC diagnostic push
  88:Drivers/CMSIS/Include/cmsis_gcc.h ****   #pragma GCC diagnostic ignored "-Wpacked"
  89:Drivers/CMSIS/Include/cmsis_gcc.h ****   #pragma GCC diagnostic ignored "-Wattributes"
  90:Drivers/CMSIS/Include/cmsis_gcc.h ****   __PACKED_STRUCT T_UINT16_READ { uint16_t v; };
  91:Drivers/CMSIS/Include/cmsis_gcc.h ****   #pragma GCC diagnostic pop
  92:Drivers/CMSIS/Include/cmsis_gcc.h ****   #define __UNALIGNED_UINT16_READ(addr)          (((const struct T_UINT16_READ *)(const void *)(add
  93:Drivers/CMSIS/Include/cmsis_gcc.h **** #endif
  94:Drivers/CMSIS/Include/cmsis_gcc.h **** #ifndef   __UNALIGNED_UINT32_WRITE
  95:Drivers/CMSIS/Include/cmsis_gcc.h ****   #pragma GCC diagnostic push
  96:Drivers/CMSIS/Include/cmsis_gcc.h ****   #pragma GCC diagnostic ignored "-Wpacked"
  97:Drivers/CMSIS/Include/cmsis_gcc.h ****   #pragma GCC diagnostic ignored "-Wattributes"
  98:Drivers/CMSIS/Include/cmsis_gcc.h ****   __PACKED_STRUCT T_UINT32_WRITE { uint32_t v; };
  99:Drivers/CMSIS/Include/cmsis_gcc.h ****   #pragma GCC diagnostic pop
 100:Drivers/CMSIS/Include/cmsis_gcc.h ****   #define __UNALIGNED_UINT32_WRITE(addr, val)    (void)((((struct T_UINT32_WRITE *)(void *)(addr))-
 101:Drivers/CMSIS/Include/cmsis_gcc.h **** #endif
 102:Drivers/CMSIS/Include/cmsis_gcc.h **** #ifndef   __UNALIGNED_UINT32_READ
 103:Drivers/CMSIS/Include/cmsis_gcc.h ****   #pragma GCC diagnostic push
 104:Drivers/CMSIS/Include/cmsis_gcc.h ****   #pragma GCC diagnostic ignored "-Wpacked"
 105:Drivers/CMSIS/Include/cmsis_gcc.h ****   #pragma GCC diagnostic ignored "-Wattributes"
 106:Drivers/CMSIS/Include/cmsis_gcc.h ****   __PACKED_STRUCT T_UINT32_READ { uint32_t v; };
 107:Drivers/CMSIS/Include/cmsis_gcc.h ****   #pragma GCC diagnostic pop
 108:Drivers/CMSIS/Include/cmsis_gcc.h ****   #define __UNALIGNED_UINT32_READ(addr)          (((const struct T_UINT32_READ *)(const void *)(add
 109:Drivers/CMSIS/Include/cmsis_gcc.h **** #endif
 110:Drivers/CMSIS/Include/cmsis_gcc.h **** #ifndef   __ALIGNED
ARM GAS  C:\Users\Lenovo\AppData\Local\Temp\ccJeDxdD.s 			page 9


 111:Drivers/CMSIS/Include/cmsis_gcc.h ****   #define __ALIGNED(x)                           __attribute__((aligned(x)))
 112:Drivers/CMSIS/Include/cmsis_gcc.h **** #endif
 113:Drivers/CMSIS/Include/cmsis_gcc.h **** #ifndef   __RESTRICT
 114:Drivers/CMSIS/Include/cmsis_gcc.h ****   #define __RESTRICT                             __restrict
 115:Drivers/CMSIS/Include/cmsis_gcc.h **** #endif
 116:Drivers/CMSIS/Include/cmsis_gcc.h **** 
 117:Drivers/CMSIS/Include/cmsis_gcc.h **** 
 118:Drivers/CMSIS/Include/cmsis_gcc.h **** /* ###########################  Core Function Access  ########################### */
 119:Drivers/CMSIS/Include/cmsis_gcc.h **** /** \ingroup  CMSIS_Core_FunctionInterface
 120:Drivers/CMSIS/Include/cmsis_gcc.h ****     \defgroup CMSIS_Core_RegAccFunctions CMSIS Core Register Access Functions
 121:Drivers/CMSIS/Include/cmsis_gcc.h ****   @{
 122:Drivers/CMSIS/Include/cmsis_gcc.h ****  */
 123:Drivers/CMSIS/Include/cmsis_gcc.h **** 
 124:Drivers/CMSIS/Include/cmsis_gcc.h **** /**
 125:Drivers/CMSIS/Include/cmsis_gcc.h ****   \brief   Enable IRQ Interrupts
 126:Drivers/CMSIS/Include/cmsis_gcc.h ****   \details Enables IRQ interrupts by clearing the I-bit in the CPSR.
 127:Drivers/CMSIS/Include/cmsis_gcc.h ****            Can only be executed in Privileged modes.
 128:Drivers/CMSIS/Include/cmsis_gcc.h ****  */
 129:Drivers/CMSIS/Include/cmsis_gcc.h **** __STATIC_FORCEINLINE void __enable_irq(void)
 130:Drivers/CMSIS/Include/cmsis_gcc.h **** {
 131:Drivers/CMSIS/Include/cmsis_gcc.h ****   __ASM volatile ("cpsie i" : : : "memory");
 132:Drivers/CMSIS/Include/cmsis_gcc.h **** }
 133:Drivers/CMSIS/Include/cmsis_gcc.h **** 
 134:Drivers/CMSIS/Include/cmsis_gcc.h **** 
 135:Drivers/CMSIS/Include/cmsis_gcc.h **** /**
 136:Drivers/CMSIS/Include/cmsis_gcc.h ****   \brief   Disable IRQ Interrupts
 137:Drivers/CMSIS/Include/cmsis_gcc.h ****   \details Disables IRQ interrupts by setting the I-bit in the CPSR.
 138:Drivers/CMSIS/Include/cmsis_gcc.h ****            Can only be executed in Privileged modes.
 139:Drivers/CMSIS/Include/cmsis_gcc.h ****  */
 140:Drivers/CMSIS/Include/cmsis_gcc.h **** __STATIC_FORCEINLINE void __disable_irq(void)
 126              		.loc 2 140 27 view .LVU16
 127              	.LBB5:
 141:Drivers/CMSIS/Include/cmsis_gcc.h **** {
 142:Drivers/CMSIS/Include/cmsis_gcc.h ****   __ASM volatile ("cpsid i" : : : "memory");
 128              		.loc 2 142 3 view .LVU17
 129              		.syntax unified
 130              	@ 142 "Drivers/CMSIS/Include/cmsis_gcc.h" 1
 131 0000 72B6     		cpsid i
 132              	@ 0 "" 2
 133              		.thumb
 134              		.syntax unified
 135              	.L10:
 136              	.LBE5:
 137              	.LBE4:
 219:Core/Src/main.c ****   while (1)
 138              		.loc 1 219 3 view .LVU18
 220:Core/Src/main.c ****   {
 221:Core/Src/main.c ****   }
 139              		.loc 1 221 3 view .LVU19
 219:Core/Src/main.c ****   while (1)
 140              		.loc 1 219 9 view .LVU20
 141 0002 FEE7     		b	.L10
 142              		.cfi_endproc
 143              	.LFE71:
 145              		.section	.text.SystemClock_Config,"ax",%progbits
 146              		.align	1
 147              		.global	SystemClock_Config
ARM GAS  C:\Users\Lenovo\AppData\Local\Temp\ccJeDxdD.s 			page 10


 148              		.syntax unified
 149              		.thumb
 150              		.thumb_func
 152              	SystemClock_Config:
 153              	.LFB69:
 146:Core/Src/main.c ****   RCC_OscInitTypeDef RCC_OscInitStruct = {0};
 154              		.loc 1 146 1 view -0
 155              		.cfi_startproc
 156              		@ args = 0, pretend = 0, frame = 64
 157              		@ frame_needed = 0, uses_anonymous_args = 0
 158 0000 10B5     		push	{r4, lr}
 159              	.LCFI1:
 160              		.cfi_def_cfa_offset 8
 161              		.cfi_offset 4, -8
 162              		.cfi_offset 14, -4
 163 0002 90B0     		sub	sp, sp, #64
 164              	.LCFI2:
 165              		.cfi_def_cfa_offset 72
 147:Core/Src/main.c ****   RCC_ClkInitTypeDef RCC_ClkInitStruct = {0};
 166              		.loc 1 147 3 view .LVU22
 147:Core/Src/main.c ****   RCC_ClkInitTypeDef RCC_ClkInitStruct = {0};
 167              		.loc 1 147 22 is_stmt 0 view .LVU23
 168 0004 06AC     		add	r4, sp, #24
 169 0006 2822     		movs	r2, #40
 170 0008 0021     		movs	r1, #0
 171 000a 2046     		mov	r0, r4
 172 000c FFF7FEFF 		bl	memset
 173              	.LVL10:
 148:Core/Src/main.c **** 
 174              		.loc 1 148 3 is_stmt 1 view .LVU24
 148:Core/Src/main.c **** 
 175              		.loc 1 148 22 is_stmt 0 view .LVU25
 176 0010 0023     		movs	r3, #0
 177 0012 0193     		str	r3, [sp, #4]
 178 0014 0293     		str	r3, [sp, #8]
 179 0016 0393     		str	r3, [sp, #12]
 180 0018 0493     		str	r3, [sp, #16]
 181 001a 0593     		str	r3, [sp, #20]
 153:Core/Src/main.c ****   RCC_OscInitStruct.HSEState = RCC_HSE_ON;
 182              		.loc 1 153 3 is_stmt 1 view .LVU26
 153:Core/Src/main.c ****   RCC_OscInitStruct.HSEState = RCC_HSE_ON;
 183              		.loc 1 153 36 is_stmt 0 view .LVU27
 184 001c 0122     		movs	r2, #1
 185 001e 0692     		str	r2, [sp, #24]
 154:Core/Src/main.c ****   RCC_OscInitStruct.HSEPredivValue = RCC_HSE_PREDIV_DIV1;
 186              		.loc 1 154 3 is_stmt 1 view .LVU28
 154:Core/Src/main.c ****   RCC_OscInitStruct.HSEPredivValue = RCC_HSE_PREDIV_DIV1;
 187              		.loc 1 154 30 is_stmt 0 view .LVU29
 188 0020 4FF48033 		mov	r3, #65536
 189 0024 0793     		str	r3, [sp, #28]
 155:Core/Src/main.c ****   RCC_OscInitStruct.HSIState = RCC_HSI_ON;
 190              		.loc 1 155 3 is_stmt 1 view .LVU30
 156:Core/Src/main.c ****   RCC_OscInitStruct.PLL.PLLState = RCC_PLL_ON;
 191              		.loc 1 156 3 view .LVU31
 156:Core/Src/main.c ****   RCC_OscInitStruct.PLL.PLLState = RCC_PLL_ON;
 192              		.loc 1 156 30 is_stmt 0 view .LVU32
 193 0026 0A92     		str	r2, [sp, #40]
ARM GAS  C:\Users\Lenovo\AppData\Local\Temp\ccJeDxdD.s 			page 11


 157:Core/Src/main.c ****   RCC_OscInitStruct.PLL.PLLSource = RCC_PLLSOURCE_HSE;
 194              		.loc 1 157 3 is_stmt 1 view .LVU33
 157:Core/Src/main.c ****   RCC_OscInitStruct.PLL.PLLSource = RCC_PLLSOURCE_HSE;
 195              		.loc 1 157 34 is_stmt 0 view .LVU34
 196 0028 0222     		movs	r2, #2
 197 002a 0D92     		str	r2, [sp, #52]
 158:Core/Src/main.c ****   RCC_OscInitStruct.PLL.PLLMUL = RCC_PLL_MUL9;
 198              		.loc 1 158 3 is_stmt 1 view .LVU35
 158:Core/Src/main.c ****   RCC_OscInitStruct.PLL.PLLMUL = RCC_PLL_MUL9;
 199              		.loc 1 158 35 is_stmt 0 view .LVU36
 200 002c 0E93     		str	r3, [sp, #56]
 159:Core/Src/main.c ****   if (HAL_RCC_OscConfig(&RCC_OscInitStruct) != HAL_OK)
 201              		.loc 1 159 3 is_stmt 1 view .LVU37
 159:Core/Src/main.c ****   if (HAL_RCC_OscConfig(&RCC_OscInitStruct) != HAL_OK)
 202              		.loc 1 159 32 is_stmt 0 view .LVU38
 203 002e 4FF4E013 		mov	r3, #1835008
 204 0032 0F93     		str	r3, [sp, #60]
 160:Core/Src/main.c ****   {
 205              		.loc 1 160 3 is_stmt 1 view .LVU39
 160:Core/Src/main.c ****   {
 206              		.loc 1 160 7 is_stmt 0 view .LVU40
 207 0034 2046     		mov	r0, r4
 208 0036 FFF7FEFF 		bl	HAL_RCC_OscConfig
 209              	.LVL11:
 160:Core/Src/main.c ****   {
 210              		.loc 1 160 6 discriminator 1 view .LVU41
 211 003a 78B9     		cbnz	r0, .L15
 167:Core/Src/main.c ****                               |RCC_CLOCKTYPE_PCLK1|RCC_CLOCKTYPE_PCLK2;
 212              		.loc 1 167 3 is_stmt 1 view .LVU42
 167:Core/Src/main.c ****                               |RCC_CLOCKTYPE_PCLK1|RCC_CLOCKTYPE_PCLK2;
 213              		.loc 1 167 31 is_stmt 0 view .LVU43
 214 003c 0F23     		movs	r3, #15
 215 003e 0193     		str	r3, [sp, #4]
 169:Core/Src/main.c ****   RCC_ClkInitStruct.AHBCLKDivider = RCC_SYSCLK_DIV1;
 216              		.loc 1 169 3 is_stmt 1 view .LVU44
 169:Core/Src/main.c ****   RCC_ClkInitStruct.AHBCLKDivider = RCC_SYSCLK_DIV1;
 217              		.loc 1 169 34 is_stmt 0 view .LVU45
 218 0040 0221     		movs	r1, #2
 219 0042 0291     		str	r1, [sp, #8]
 170:Core/Src/main.c ****   RCC_ClkInitStruct.APB1CLKDivider = RCC_HCLK_DIV2;
 220              		.loc 1 170 3 is_stmt 1 view .LVU46
 170:Core/Src/main.c ****   RCC_ClkInitStruct.APB1CLKDivider = RCC_HCLK_DIV2;
 221              		.loc 1 170 35 is_stmt 0 view .LVU47
 222 0044 0023     		movs	r3, #0
 223 0046 0393     		str	r3, [sp, #12]
 171:Core/Src/main.c ****   RCC_ClkInitStruct.APB2CLKDivider = RCC_HCLK_DIV1;
 224              		.loc 1 171 3 is_stmt 1 view .LVU48
 171:Core/Src/main.c ****   RCC_ClkInitStruct.APB2CLKDivider = RCC_HCLK_DIV1;
 225              		.loc 1 171 36 is_stmt 0 view .LVU49
 226 0048 4FF48062 		mov	r2, #1024
 227 004c 0492     		str	r2, [sp, #16]
 172:Core/Src/main.c **** 
 228              		.loc 1 172 3 is_stmt 1 view .LVU50
 172:Core/Src/main.c **** 
 229              		.loc 1 172 36 is_stmt 0 view .LVU51
 230 004e 0593     		str	r3, [sp, #20]
 174:Core/Src/main.c ****   {
ARM GAS  C:\Users\Lenovo\AppData\Local\Temp\ccJeDxdD.s 			page 12


 231              		.loc 1 174 3 is_stmt 1 view .LVU52
 174:Core/Src/main.c ****   {
 232              		.loc 1 174 7 is_stmt 0 view .LVU53
 233 0050 01A8     		add	r0, sp, #4
 234 0052 FFF7FEFF 		bl	HAL_RCC_ClockConfig
 235              	.LVL12:
 174:Core/Src/main.c ****   {
 236              		.loc 1 174 6 discriminator 1 view .LVU54
 237 0056 18B9     		cbnz	r0, .L16
 178:Core/Src/main.c **** 
 238              		.loc 1 178 1 view .LVU55
 239 0058 10B0     		add	sp, sp, #64
 240              	.LCFI3:
 241              		.cfi_remember_state
 242              		.cfi_def_cfa_offset 8
 243              		@ sp needed
 244 005a 10BD     		pop	{r4, pc}
 245              	.L15:
 246              	.LCFI4:
 247              		.cfi_restore_state
 162:Core/Src/main.c ****   }
 248              		.loc 1 162 5 is_stmt 1 view .LVU56
 249 005c FFF7FEFF 		bl	Error_Handler
 250              	.LVL13:
 251              	.L16:
 176:Core/Src/main.c ****   }
 252              		.loc 1 176 5 view .LVU57
 253 0060 FFF7FEFF 		bl	Error_Handler
 254              	.LVL14:
 255              		.cfi_endproc
 256              	.LFE69:
 258              		.section	.rodata.main.str1.4,"aMS",%progbits,1
 259              		.align	2
 260              	.LC0:
 261 0000 48656C6C 		.ascii	"Hello World\000"
 261      6F20576F 
 261      726C6400 
 262              		.align	2
 263              	.LC1:
 264 000c 48656C6C 		.ascii	"Hello Bluetooth\000"
 264      6F20426C 
 264      7565746F 
 264      6F746800 
 265              		.align	2
 266              	.LC2:
 267 001c 413A2566 		.ascii	"A:%f\000"
 267      00
 268              		.section	.text.main,"ax",%progbits
 269              		.align	1
 270              		.global	main
 271              		.syntax unified
 272              		.thumb
 273              		.thumb_func
 275              	main:
 276              	.LFB68:
  78:Core/Src/main.c **** 
 277              		.loc 1 78 1 view -0
ARM GAS  C:\Users\Lenovo\AppData\Local\Temp\ccJeDxdD.s 			page 13


 278              		.cfi_startproc
 279              		@ Volatile: function does not return.
 280              		@ args = 0, pretend = 0, frame = 0
 281              		@ frame_needed = 0, uses_anonymous_args = 0
 282 0000 00B5     		push	{lr}
 283              	.LCFI5:
 284              		.cfi_def_cfa_offset 4
 285              		.cfi_offset 14, -4
 286 0002 83B0     		sub	sp, sp, #12
 287              	.LCFI6:
 288              		.cfi_def_cfa_offset 16
  87:Core/Src/main.c **** 
 289              		.loc 1 87 3 view .LVU59
 290 0004 FFF7FEFF 		bl	HAL_Init
 291              	.LVL15:
  94:Core/Src/main.c **** 
 292              		.loc 1 94 3 view .LVU60
 293 0008 FFF7FEFF 		bl	SystemClock_Config
 294              	.LVL16:
 101:Core/Src/main.c ****   MX_USART1_UART_Init();
 295              		.loc 1 101 3 view .LVU61
 296 000c FFF7FEFF 		bl	MX_GPIO_Init
 297              	.LVL17:
 102:Core/Src/main.c ****   MX_USART2_UART_Init();
 298              		.loc 1 102 3 view .LVU62
 299 0010 FFF7FEFF 		bl	MX_USART1_UART_Init
 300              	.LVL18:
 103:Core/Src/main.c ****   MX_TIM8_Init();
 301              		.loc 1 103 3 view .LVU63
 302 0014 FFF7FEFF 		bl	MX_USART2_UART_Init
 303              	.LVL19:
 104:Core/Src/main.c ****   MX_TIM1_Init();
 304              		.loc 1 104 3 view .LVU64
 305 0018 FFF7FEFF 		bl	MX_TIM8_Init
 306              	.LVL20:
 105:Core/Src/main.c ****   MX_TIM3_Init();
 307              		.loc 1 105 3 view .LVU65
 308 001c FFF7FEFF 		bl	MX_TIM1_Init
 309              	.LVL21:
 106:Core/Src/main.c ****   MX_TIM4_Init();
 310              		.loc 1 106 3 view .LVU66
 311 0020 FFF7FEFF 		bl	MX_TIM3_Init
 312              	.LVL22:
 107:Core/Src/main.c ****   MX_TIM5_Init();
 313              		.loc 1 107 3 view .LVU67
 314 0024 FFF7FEFF 		bl	MX_TIM4_Init
 315              	.LVL23:
 108:Core/Src/main.c ****   /* USER CODE BEGIN 2 */
 316              		.loc 1 108 3 view .LVU68
 317 0028 FFF7FEFF 		bl	MX_TIM5_Init
 318              	.LVL24:
 110:Core/Src/main.c **** 	Motor_Init();
 319              		.loc 1 110 2 view .LVU69
 320 002c FFF7FEFF 		bl	OLED_Init
 321              	.LVL25:
 111:Core/Src/main.c ****   Key_Init (); 
 322              		.loc 1 111 2 view .LVU70
ARM GAS  C:\Users\Lenovo\AppData\Local\Temp\ccJeDxdD.s 			page 14


 323 0030 FFF7FEFF 		bl	Motor_Init
 324              	.LVL26:
 112:Core/Src/main.c **** 	
 325              		.loc 1 112 3 view .LVU71
 326 0034 FFF7FEFF 		bl	Key_Init
 327              	.LVL27:
 115:Core/Src/main.c ****   HAL_UART_Receive_IT(&huart1, (uint8_t *)&rec_tra_data, 1);
 328              		.loc 1 115 3 view .LVU72
 329 0038 224C     		ldr	r4, .L20
 330 003a 4FF6FF73 		movw	r3, #65535
 331 003e 0B22     		movs	r2, #11
 332 0040 2149     		ldr	r1, .L20+4
 333 0042 2046     		mov	r0, r4
 334 0044 FFF7FEFF 		bl	HAL_UART_Transmit
 335              	.LVL28:
 116:Core/Src/main.c **** 	
 336              		.loc 1 116 3 view .LVU73
 337 0048 0122     		movs	r2, #1
 338 004a 2049     		ldr	r1, .L20+8
 339 004c 2046     		mov	r0, r4
 340 004e FFF7FEFF 		bl	HAL_UART_Receive_IT
 341              	.LVL29:
 118:Core/Src/main.c ****   HAL_UART_Receive_IT(&huart2, (uint8_t *)&Bluetooth_rec_tra_data, 1); 
 342              		.loc 1 118 3 view .LVU74
 343 0052 1F4C     		ldr	r4, .L20+12
 344 0054 4FF6FF73 		movw	r3, #65535
 345 0058 0F22     		movs	r2, #15
 346 005a 1E49     		ldr	r1, .L20+16
 347 005c 2046     		mov	r0, r4
 348 005e FFF7FEFF 		bl	HAL_UART_Transmit
 349              	.LVL30:
 119:Core/Src/main.c **** 	
 350              		.loc 1 119 3 view .LVU75
 351 0062 0122     		movs	r2, #1
 352 0064 1C49     		ldr	r1, .L20+20
 353 0066 2046     		mov	r0, r4
 354 0068 FFF7FEFF 		bl	HAL_UART_Receive_IT
 355              	.LVL31:
 121:Core/Src/main.c **** 	pid_set(&moterB_pid, 0.68, 0.2, 0.0, 100, 10);
 356              		.loc 1 121 3 view .LVU76
 357 006c FFF7FEFF 		bl	Encoder_Init
 358              	.LVL32:
 122:Core/Src/main.c ****   /* USER CODE END 2 */
 359              		.loc 1 122 2 view .LVU77
 360 0070 1A4B     		ldr	r3, .L20+24
 361 0072 0193     		str	r3, [sp, #4]	@ float
 362 0074 1A4B     		ldr	r3, .L20+28
 363 0076 0093     		str	r3, [sp]	@ float
 364 0078 0023     		movs	r3, #0
 365 007a 1A4A     		ldr	r2, .L20+32
 366 007c 1A49     		ldr	r1, .L20+36
 367 007e 1B48     		ldr	r0, .L20+40
 368 0080 FFF7FEFF 		bl	pid_set
 369              	.LVL33:
 370              	.L18:
 127:Core/Src/main.c ****   {
 371              		.loc 1 127 3 view .LVU78
ARM GAS  C:\Users\Lenovo\AppData\Local\Temp\ccJeDxdD.s 			page 15


 130:Core/Src/main.c ****     sprintf(Temp_chr,"A:%f",GetMotorSpeed(1));
 372              		.loc 1 130 3 view .LVU79
 373 0084 0120     		movs	r0, #1
 374 0086 FFF7FEFF 		bl	GetMotorSpeed
 375              	.LVL34:
 376 008a 0146     		mov	r1, r0
 130:Core/Src/main.c ****     sprintf(Temp_chr,"A:%f",GetMotorSpeed(1));
 377              		.loc 1 130 3 is_stmt 0 discriminator 1 view .LVU80
 378 008c 0022     		movs	r2, #0
 379 008e 1748     		ldr	r0, .L20+40
 380 0090 FFF7FEFF 		bl	pid_cal
 381              	.LVL35:
 130:Core/Src/main.c ****     sprintf(Temp_chr,"A:%f",GetMotorSpeed(1));
 382              		.loc 1 130 3 discriminator 2 view .LVU81
 383 0094 FFF7FEFF 		bl	MotorB_Speed
 384              	.LVL36:
 131:Core/Src/main.c **** 		OLED_String(1,16,Temp_chr,16);	 
 385              		.loc 1 131 5 is_stmt 1 view .LVU82
 131:Core/Src/main.c **** 		OLED_String(1,16,Temp_chr,16);	 
 386              		.loc 1 131 29 is_stmt 0 view .LVU83
 387 0098 0120     		movs	r0, #1
 388 009a FFF7FEFF 		bl	GetMotorSpeed
 389              	.LVL37:
 131:Core/Src/main.c **** 		OLED_String(1,16,Temp_chr,16);	 
 390              		.loc 1 131 5 discriminator 1 view .LVU84
 391 009e FFF7FEFF 		bl	__aeabi_f2d
 392              	.LVL38:
 393 00a2 0246     		mov	r2, r0
 394 00a4 0B46     		mov	r3, r1
 395 00a6 124C     		ldr	r4, .L20+44
 396 00a8 1249     		ldr	r1, .L20+48
 397 00aa 2046     		mov	r0, r4
 398 00ac FFF7FEFF 		bl	sprintf
 399              	.LVL39:
 132:Core/Src/main.c **** 	  HAL_Delay(20);
 400              		.loc 1 132 3 is_stmt 1 view .LVU85
 401 00b0 1023     		movs	r3, #16
 402 00b2 2246     		mov	r2, r4
 403 00b4 1946     		mov	r1, r3
 404 00b6 0120     		movs	r0, #1
 405 00b8 FFF7FEFF 		bl	OLED_String
 406              	.LVL40:
 133:Core/Src/main.c ****     /* USER CODE END WHILE */
 407              		.loc 1 133 4 discriminator 1 view .LVU86
 408 00bc 1420     		movs	r0, #20
 409 00be FFF7FEFF 		bl	HAL_Delay
 410              	.LVL41:
 127:Core/Src/main.c ****   {
 411              		.loc 1 127 9 view .LVU87
 412 00c2 DFE7     		b	.L18
 413              	.L21:
 414              		.align	2
 415              	.L20:
 416 00c4 00000000 		.word	huart1
 417 00c8 00000000 		.word	.LC0
 418 00cc 00000000 		.word	rec_tra_data
 419 00d0 00000000 		.word	huart2
ARM GAS  C:\Users\Lenovo\AppData\Local\Temp\ccJeDxdD.s 			page 16


 420 00d4 0C000000 		.word	.LC1
 421 00d8 00000000 		.word	Bluetooth_rec_tra_data
 422 00dc 00002041 		.word	1092616192
 423 00e0 0000C842 		.word	1120403456
 424 00e4 CDCC4C3E 		.word	1045220557
 425 00e8 7B142E3F 		.word	1059984507
 426 00ec 00000000 		.word	moterB_pid
 427 00f0 00000000 		.word	Temp_chr
 428 00f4 1C000000 		.word	.LC2
 429              		.cfi_endproc
 430              	.LFE68:
 432              		.global	moterB_pid
 433              		.section	.bss.moterB_pid,"aw",%nobits
 434              		.align	2
 437              	moterB_pid:
 438 0000 00000000 		.space	52
 438      00000000 
 438      00000000 
 438      00000000 
 438      00000000 
 439              		.global	Temp_chr
 440              		.section	.bss.Temp_chr,"aw",%nobits
 441              		.align	2
 444              	Temp_chr:
 445 0000 00000000 		.space	100
 445      00000000 
 445      00000000 
 445      00000000 
 445      00000000 
 446              		.global	Bluetooth_rec_tra_data
 447              		.section	.bss.Bluetooth_rec_tra_data,"aw",%nobits
 448              		.align	2
 451              	Bluetooth_rec_tra_data:
 452 0000 00       		.space	1
 453              		.global	rec_tra_data
 454              		.section	.bss.rec_tra_data,"aw",%nobits
 455              		.align	2
 458              	rec_tra_data:
 459 0000 00       		.space	1
 460              		.global	Actual_Speed
 461              		.section	.bss.Actual_Speed,"aw",%nobits
 462              		.align	2
 465              	Actual_Speed:
 466 0000 00000000 		.space	4
 467              		.text
 468              	.Letext0:
 469              		.file 3 "D:/arm-none-eabi-gcc/arm-none-eabi/include/machine/_default_types.h"
 470              		.file 4 "D:/arm-none-eabi-gcc/arm-none-eabi/include/sys/_stdint.h"
 471              		.file 5 "Drivers/CMSIS/Device/ST/STM32F1xx/Include/stm32f103xe.h"
 472              		.file 6 "Drivers/STM32F1xx_HAL_Driver/Inc/stm32f1xx_hal_def.h"
 473              		.file 7 "Drivers/STM32F1xx_HAL_Driver/Inc/stm32f1xx_hal_rcc.h"
 474              		.file 8 "Drivers/STM32F1xx_HAL_Driver/Inc/stm32f1xx_hal_rcc_ex.h"
 475              		.file 9 "Drivers/STM32F1xx_HAL_Driver/Inc/stm32f1xx_hal_dma.h"
 476              		.file 10 "Drivers/STM32F1xx_HAL_Driver/Inc/stm32f1xx_hal_uart.h"
 477              		.file 11 "Core/Inc/usart.h"
 478              		.file 12 "USER/Arithmetic/pid.h"
 479              		.file 13 "Drivers/STM32F1xx_HAL_Driver/Inc/stm32f1xx_hal.h"
ARM GAS  C:\Users\Lenovo\AppData\Local\Temp\ccJeDxdD.s 			page 17


 480              		.file 14 "USER/BSP/bsp_OLED.h"
 481              		.file 15 "D:/arm-none-eabi-gcc/arm-none-eabi/include/stdio.h"
 482              		.file 16 "USER/Hardware/Motor.h"
 483              		.file 17 "USER/Hardware/Encoder.h"
 484              		.file 18 "Core/Inc/tim.h"
 485              		.file 19 "Core/Inc/gpio.h"
 486              		.file 20 "USER/Hardware/KEY.h"
 487              		.file 21 "<built-in>"
ARM GAS  C:\Users\Lenovo\AppData\Local\Temp\ccJeDxdD.s 			page 18

