ARM GAS  C:\Users\Lenovo\AppData\Local\Temp\ccdf5S8s.s 			page 1


   1              		.cpu cortex-m3
   2              		.arch armv7-m
   3              		.fpu softvfp
   4              		.eabi_attribute 20, 1
   5              		.eabi_attribute 21, 1
   6              		.eabi_attribute 23, 3
   7              		.eabi_attribute 24, 1
   8              		.eabi_attribute 25, 1
   9              		.eabi_attribute 26, 1
  10              		.eabi_attribute 30, 1
  11              		.eabi_attribute 34, 1
  12              		.eabi_attribute 18, 4
  13              		.file	"Motor.c"
  14              		.text
  15              	.Ltext0:
  16              		.cfi_sections	.debug_frame
  17              		.file 1 "USER/Hardware/Motor.c"
  18              		.section	.text.MotorA_Speed,"ax",%progbits
  19              		.align	1
  20              		.global	MotorA_Speed
  21              		.syntax unified
  22              		.thumb
  23              		.thumb_func
  25              	MotorA_Speed:
  26              	.LVL0:
  27              	.LFB65:
   1:USER/Hardware/Motor.c **** #include "Motor.h" // 包含电机控制相关的头文件
   2:USER/Hardware/Motor.c **** #include "tim.h"   // 包含定时器配置相关的头文件
   3:USER/Hardware/Motor.c **** 
   4:USER/Hardware/Motor.c **** /**
   5:USER/Hardware/Motor.c ****   * @brief  设置电机A的速度。
   6:USER/Hardware/Motor.c ****   * @param  Speed: 电机A的速度值，正数表示正转，负数表示反转，0表示停止。
   7:USER/Hardware/Motor.c ****   * @retval 无。
   8:USER/Hardware/Motor.c ****   */
   9:USER/Hardware/Motor.c **** void MotorA_Speed(float Speed)
  10:USER/Hardware/Motor.c **** {
  28              		.loc 1 10 1 view -0
  29              		.cfi_startproc
  30              		@ args = 0, pretend = 0, frame = 0
  31              		@ frame_needed = 0, uses_anonymous_args = 0
  32              		.loc 1 10 1 is_stmt 0 view .LVU1
  33 0000 38B5     		push	{r3, r4, r5, lr}
  34              	.LCFI0:
  35              		.cfi_def_cfa_offset 16
  36              		.cfi_offset 3, -16
  37              		.cfi_offset 4, -12
  38              		.cfi_offset 5, -8
  39              		.cfi_offset 14, -4
  40 0002 0446     		mov	r4, r0
  11:USER/Hardware/Motor.c ****     if(Speed >= 0)
  41              		.loc 1 11 5 is_stmt 1 view .LVU2
  42              		.loc 1 11 7 is_stmt 0 view .LVU3
  43 0004 0021     		movs	r1, #0
  44 0006 FFF7FEFF 		bl	__aeabi_fcmpge
  45              	.LVL1:
  46              		.loc 1 11 7 view .LVU4
  47 000a 88B1     		cbz	r0, .L6
ARM GAS  C:\Users\Lenovo\AppData\Local\Temp\ccdf5S8s.s 			page 2


  12:USER/Hardware/Motor.c ****     {
  13:USER/Hardware/Motor.c ****         __HAL_TIM_SetCompare(&htim8, TIM_CHANNEL_1, Speed); // 设置PWM占空比，控制速度
  48              		.loc 1 13 9 is_stmt 1 view .LVU5
  49 000c 124B     		ldr	r3, .L8
  50 000e 1D68     		ldr	r5, [r3]
  51 0010 2046     		mov	r0, r4
  52 0012 FFF7FEFF 		bl	__aeabi_f2uiz
  53              	.LVL2:
  54 0016 6863     		str	r0, [r5, #52]
  14:USER/Hardware/Motor.c ****         HAL_GPIO_WritePin(AIN1_GPIO_Port, AIN1_Pin, GPIO_PIN_SET);   // 电机A正转
  55              		.loc 1 14 9 view .LVU6
  56 0018 104C     		ldr	r4, .L8+4
  57              	.LVL3:
  58              		.loc 1 14 9 is_stmt 0 view .LVU7
  59 001a 0122     		movs	r2, #1
  60 001c 8021     		movs	r1, #128
  61 001e 2046     		mov	r0, r4
  62 0020 FFF7FEFF 		bl	HAL_GPIO_WritePin
  63              	.LVL4:
  15:USER/Hardware/Motor.c ****         HAL_GPIO_WritePin(AIN2_GPIO_Port, AIN2_Pin, GPIO_PIN_RESET); // 停止电机A反转
  64              		.loc 1 15 9 is_stmt 1 view .LVU8
  65 0024 0022     		movs	r2, #0
  66 0026 4021     		movs	r1, #64
  67 0028 2046     		mov	r0, r4
  68 002a FFF7FEFF 		bl	HAL_GPIO_WritePin
  69              	.LVL5:
  70              	.L1:
  16:USER/Hardware/Motor.c ****     }
  17:USER/Hardware/Motor.c ****     else
  18:USER/Hardware/Motor.c ****     {
  19:USER/Hardware/Motor.c ****         __HAL_TIM_SetCompare(&htim8, TIM_CHANNEL_1, -Speed); // 设置PWM占空比，控制速度
  20:USER/Hardware/Motor.c ****         HAL_GPIO_WritePin(AIN1_GPIO_Port, AIN1_Pin, GPIO_PIN_RESET); // 停止电机A正转
  21:USER/Hardware/Motor.c ****         HAL_GPIO_WritePin(AIN2_GPIO_Port, AIN2_Pin, GPIO_PIN_SET);   // 电机A反转
  22:USER/Hardware/Motor.c ****     }
  23:USER/Hardware/Motor.c **** }
  71              		.loc 1 23 1 is_stmt 0 view .LVU9
  72 002e 38BD     		pop	{r3, r4, r5, pc}
  73              	.LVL6:
  74              	.L6:
  19:USER/Hardware/Motor.c ****         HAL_GPIO_WritePin(AIN1_GPIO_Port, AIN1_Pin, GPIO_PIN_RESET); // 停止电机A正转
  75              		.loc 1 19 9 is_stmt 1 view .LVU10
  76 0030 04F10040 		add	r0, r4, #-2147483648
  77 0034 084B     		ldr	r3, .L8
  78 0036 1C68     		ldr	r4, [r3]
  79              	.LVL7:
  19:USER/Hardware/Motor.c ****         HAL_GPIO_WritePin(AIN1_GPIO_Port, AIN1_Pin, GPIO_PIN_RESET); // 停止电机A正转
  80              		.loc 1 19 9 is_stmt 0 view .LVU11
  81 0038 FFF7FEFF 		bl	__aeabi_f2uiz
  82              	.LVL8:
  83 003c 6063     		str	r0, [r4, #52]
  20:USER/Hardware/Motor.c ****         HAL_GPIO_WritePin(AIN2_GPIO_Port, AIN2_Pin, GPIO_PIN_SET);   // 电机A反转
  84              		.loc 1 20 9 is_stmt 1 view .LVU12
  85 003e 074C     		ldr	r4, .L8+4
  86 0040 0022     		movs	r2, #0
  87 0042 8021     		movs	r1, #128
  88 0044 2046     		mov	r0, r4
  89 0046 FFF7FEFF 		bl	HAL_GPIO_WritePin
ARM GAS  C:\Users\Lenovo\AppData\Local\Temp\ccdf5S8s.s 			page 3


  90              	.LVL9:
  21:USER/Hardware/Motor.c ****     }
  91              		.loc 1 21 9 view .LVU13
  92 004a 0122     		movs	r2, #1
  93 004c 4021     		movs	r1, #64
  94 004e 2046     		mov	r0, r4
  95 0050 FFF7FEFF 		bl	HAL_GPIO_WritePin
  96              	.LVL10:
  97              		.loc 1 23 1 is_stmt 0 view .LVU14
  98 0054 EBE7     		b	.L1
  99              	.L9:
 100 0056 00BF     		.align	2
 101              	.L8:
 102 0058 00000000 		.word	htim8
 103 005c 00140140 		.word	1073812480
 104              		.cfi_endproc
 105              	.LFE65:
 107              		.section	.text.MotorB_Speed,"ax",%progbits
 108              		.align	1
 109              		.global	MotorB_Speed
 110              		.syntax unified
 111              		.thumb
 112              		.thumb_func
 114              	MotorB_Speed:
 115              	.LVL11:
 116              	.LFB66:
  24:USER/Hardware/Motor.c **** 
  25:USER/Hardware/Motor.c **** /**
  26:USER/Hardware/Motor.c ****   * @brief  设置电机B的速度。
  27:USER/Hardware/Motor.c ****   * @param  Speed: 电机B的速度值，正数表示正转，负数表示反转，0表示停止。
  28:USER/Hardware/Motor.c ****   * @retval 无。
  29:USER/Hardware/Motor.c ****   */
  30:USER/Hardware/Motor.c **** void MotorB_Speed(float Speed)
  31:USER/Hardware/Motor.c **** {
 117              		.loc 1 31 1 is_stmt 1 view -0
 118              		.cfi_startproc
 119              		@ args = 0, pretend = 0, frame = 0
 120              		@ frame_needed = 0, uses_anonymous_args = 0
 121              		.loc 1 31 1 is_stmt 0 view .LVU16
 122 0000 38B5     		push	{r3, r4, r5, lr}
 123              	.LCFI1:
 124              		.cfi_def_cfa_offset 16
 125              		.cfi_offset 3, -16
 126              		.cfi_offset 4, -12
 127              		.cfi_offset 5, -8
 128              		.cfi_offset 14, -4
 129 0002 0446     		mov	r4, r0
  32:USER/Hardware/Motor.c ****     if(Speed >= 0)
 130              		.loc 1 32 5 is_stmt 1 view .LVU17
 131              		.loc 1 32 7 is_stmt 0 view .LVU18
 132 0004 0021     		movs	r1, #0
 133 0006 FFF7FEFF 		bl	__aeabi_fcmpge
 134              	.LVL12:
 135              		.loc 1 32 7 view .LVU19
 136 000a 88B1     		cbz	r0, .L15
  33:USER/Hardware/Motor.c ****     {
  34:USER/Hardware/Motor.c ****         __HAL_TIM_SetCompare(&htim8, TIM_CHANNEL_2, Speed); // 设置PWM占空比，控制速度
ARM GAS  C:\Users\Lenovo\AppData\Local\Temp\ccdf5S8s.s 			page 4


 137              		.loc 1 34 9 is_stmt 1 view .LVU20
 138 000c 124B     		ldr	r3, .L17
 139 000e 1D68     		ldr	r5, [r3]
 140 0010 2046     		mov	r0, r4
 141 0012 FFF7FEFF 		bl	__aeabi_f2uiz
 142              	.LVL13:
 143 0016 A863     		str	r0, [r5, #56]
  35:USER/Hardware/Motor.c ****         HAL_GPIO_WritePin(BIN1_GPIO_Port, BIN1_Pin, GPIO_PIN_RESET);   // 电机B正转
 144              		.loc 1 35 9 view .LVU21
 145 0018 104C     		ldr	r4, .L17+4
 146              	.LVL14:
 147              		.loc 1 35 9 is_stmt 0 view .LVU22
 148 001a 0022     		movs	r2, #0
 149 001c 1021     		movs	r1, #16
 150 001e 2046     		mov	r0, r4
 151 0020 FFF7FEFF 		bl	HAL_GPIO_WritePin
 152              	.LVL15:
  36:USER/Hardware/Motor.c ****         HAL_GPIO_WritePin(BIN2_GPIO_Port, BIN2_Pin, GPIO_PIN_SET); // 停止电机B反转
 153              		.loc 1 36 9 is_stmt 1 view .LVU23
 154 0024 0122     		movs	r2, #1
 155 0026 2021     		movs	r1, #32
 156 0028 2046     		mov	r0, r4
 157 002a FFF7FEFF 		bl	HAL_GPIO_WritePin
 158              	.LVL16:
 159              	.L10:
  37:USER/Hardware/Motor.c ****     }
  38:USER/Hardware/Motor.c ****     else
  39:USER/Hardware/Motor.c ****     {
  40:USER/Hardware/Motor.c ****         __HAL_TIM_SetCompare(&htim8, TIM_CHANNEL_2, -Speed); // 设置PWM占空比，控制速度
  41:USER/Hardware/Motor.c ****         HAL_GPIO_WritePin(BIN1_GPIO_Port, BIN1_Pin, GPIO_PIN_SET); // 停止电机B正转
  42:USER/Hardware/Motor.c ****         HAL_GPIO_WritePin(BIN2_GPIO_Port, BIN2_Pin, GPIO_PIN_RESET);   // 电机B反转
  43:USER/Hardware/Motor.c ****     }
  44:USER/Hardware/Motor.c **** }
 160              		.loc 1 44 1 is_stmt 0 view .LVU24
 161 002e 38BD     		pop	{r3, r4, r5, pc}
 162              	.LVL17:
 163              	.L15:
  40:USER/Hardware/Motor.c ****         HAL_GPIO_WritePin(BIN1_GPIO_Port, BIN1_Pin, GPIO_PIN_SET); // 停止电机B正转
 164              		.loc 1 40 9 is_stmt 1 view .LVU25
 165 0030 04F10040 		add	r0, r4, #-2147483648
 166 0034 084B     		ldr	r3, .L17
 167 0036 1C68     		ldr	r4, [r3]
 168              	.LVL18:
  40:USER/Hardware/Motor.c ****         HAL_GPIO_WritePin(BIN1_GPIO_Port, BIN1_Pin, GPIO_PIN_SET); // 停止电机B正转
 169              		.loc 1 40 9 is_stmt 0 view .LVU26
 170 0038 FFF7FEFF 		bl	__aeabi_f2uiz
 171              	.LVL19:
 172 003c A063     		str	r0, [r4, #56]
  41:USER/Hardware/Motor.c ****         HAL_GPIO_WritePin(BIN2_GPIO_Port, BIN2_Pin, GPIO_PIN_RESET);   // 电机B反转
 173              		.loc 1 41 9 is_stmt 1 view .LVU27
 174 003e 074C     		ldr	r4, .L17+4
 175 0040 0122     		movs	r2, #1
 176 0042 1021     		movs	r1, #16
 177 0044 2046     		mov	r0, r4
 178 0046 FFF7FEFF 		bl	HAL_GPIO_WritePin
 179              	.LVL20:
  42:USER/Hardware/Motor.c ****     }
ARM GAS  C:\Users\Lenovo\AppData\Local\Temp\ccdf5S8s.s 			page 5


 180              		.loc 1 42 9 view .LVU28
 181 004a 0022     		movs	r2, #0
 182 004c 2021     		movs	r1, #32
 183 004e 2046     		mov	r0, r4
 184 0050 FFF7FEFF 		bl	HAL_GPIO_WritePin
 185              	.LVL21:
 186              		.loc 1 44 1 is_stmt 0 view .LVU29
 187 0054 EBE7     		b	.L10
 188              	.L18:
 189 0056 00BF     		.align	2
 190              	.L17:
 191 0058 00000000 		.word	htim8
 192 005c 000C0140 		.word	1073810432
 193              		.cfi_endproc
 194              	.LFE66:
 196              		.section	.text.MotorC_Speed,"ax",%progbits
 197              		.align	1
 198              		.global	MotorC_Speed
 199              		.syntax unified
 200              		.thumb
 201              		.thumb_func
 203              	MotorC_Speed:
 204              	.LVL22:
 205              	.LFB67:
  45:USER/Hardware/Motor.c **** 
  46:USER/Hardware/Motor.c **** /**
  47:USER/Hardware/Motor.c ****   * @brief  设置电机C的速度。
  48:USER/Hardware/Motor.c ****   * @param  Speed: 电机C的速度值，正数表示正转，负数表示反转，0表示停止。
  49:USER/Hardware/Motor.c ****   * @retval 无。
  50:USER/Hardware/Motor.c ****   */
  51:USER/Hardware/Motor.c **** void MotorC_Speed(float Speed)
  52:USER/Hardware/Motor.c **** {
 206              		.loc 1 52 1 is_stmt 1 view -0
 207              		.cfi_startproc
 208              		@ args = 0, pretend = 0, frame = 0
 209              		@ frame_needed = 0, uses_anonymous_args = 0
 210              		.loc 1 52 1 is_stmt 0 view .LVU31
 211 0000 38B5     		push	{r3, r4, r5, lr}
 212              	.LCFI2:
 213              		.cfi_def_cfa_offset 16
 214              		.cfi_offset 3, -16
 215              		.cfi_offset 4, -12
 216              		.cfi_offset 5, -8
 217              		.cfi_offset 14, -4
 218 0002 0446     		mov	r4, r0
  53:USER/Hardware/Motor.c ****     if(Speed >= 0)
 219              		.loc 1 53 5 is_stmt 1 view .LVU32
 220              		.loc 1 53 7 is_stmt 0 view .LVU33
 221 0004 0021     		movs	r1, #0
 222 0006 FFF7FEFF 		bl	__aeabi_fcmpge
 223              	.LVL23:
 224              		.loc 1 53 7 view .LVU34
 225 000a 88B1     		cbz	r0, .L24
  54:USER/Hardware/Motor.c ****     {
  55:USER/Hardware/Motor.c ****         __HAL_TIM_SetCompare(&htim8, TIM_CHANNEL_3, Speed); // 设置PWM占空比，控制速度
 226              		.loc 1 55 9 is_stmt 1 view .LVU35
 227 000c 124B     		ldr	r3, .L26
ARM GAS  C:\Users\Lenovo\AppData\Local\Temp\ccdf5S8s.s 			page 6


 228 000e 1D68     		ldr	r5, [r3]
 229 0010 2046     		mov	r0, r4
 230 0012 FFF7FEFF 		bl	__aeabi_f2uiz
 231              	.LVL24:
 232 0016 E863     		str	r0, [r5, #60]
  56:USER/Hardware/Motor.c ****         HAL_GPIO_WritePin(CIN1_GPIO_Port, CIN1_Pin, GPIO_PIN_SET);   // 电机C正转
 233              		.loc 1 56 9 view .LVU36
 234 0018 0122     		movs	r2, #1
 235 001a 4FF40051 		mov	r1, #8192
 236 001e 0F48     		ldr	r0, .L26+4
 237 0020 FFF7FEFF 		bl	HAL_GPIO_WritePin
 238              	.LVL25:
  57:USER/Hardware/Motor.c ****         HAL_GPIO_WritePin(CIN2_GPIO_Port, CIN2_Pin, GPIO_PIN_RESET); // 停止电机C反转
 239              		.loc 1 57 9 view .LVU37
 240 0024 0022     		movs	r2, #0
 241 0026 0121     		movs	r1, #1
 242 0028 0D48     		ldr	r0, .L26+8
 243 002a FFF7FEFF 		bl	HAL_GPIO_WritePin
 244              	.LVL26:
 245              	.L19:
  58:USER/Hardware/Motor.c ****     }
  59:USER/Hardware/Motor.c ****     else
  60:USER/Hardware/Motor.c ****     {
  61:USER/Hardware/Motor.c ****         __HAL_TIM_SetCompare(&htim8, TIM_CHANNEL_3, -Speed); // 设置PWM占空比，控制速度
  62:USER/Hardware/Motor.c ****         HAL_GPIO_WritePin(CIN1_GPIO_Port, CIN1_Pin, GPIO_PIN_RESET); // 停止电机C正转
  63:USER/Hardware/Motor.c ****         HAL_GPIO_WritePin(CIN2_GPIO_Port, CIN2_Pin, GPIO_PIN_SET);   // 电机C反转
  64:USER/Hardware/Motor.c ****     }
  65:USER/Hardware/Motor.c **** }
 246              		.loc 1 65 1 is_stmt 0 view .LVU38
 247 002e 38BD     		pop	{r3, r4, r5, pc}
 248              	.LVL27:
 249              	.L24:
  61:USER/Hardware/Motor.c ****         HAL_GPIO_WritePin(CIN1_GPIO_Port, CIN1_Pin, GPIO_PIN_RESET); // 停止电机C正转
 250              		.loc 1 61 9 is_stmt 1 view .LVU39
 251 0030 04F10040 		add	r0, r4, #-2147483648
 252 0034 084B     		ldr	r3, .L26
 253 0036 1C68     		ldr	r4, [r3]
 254              	.LVL28:
  61:USER/Hardware/Motor.c ****         HAL_GPIO_WritePin(CIN1_GPIO_Port, CIN1_Pin, GPIO_PIN_RESET); // 停止电机C正转
 255              		.loc 1 61 9 is_stmt 0 view .LVU40
 256 0038 FFF7FEFF 		bl	__aeabi_f2uiz
 257              	.LVL29:
 258 003c E063     		str	r0, [r4, #60]
  62:USER/Hardware/Motor.c ****         HAL_GPIO_WritePin(CIN2_GPIO_Port, CIN2_Pin, GPIO_PIN_SET);   // 电机C反转
 259              		.loc 1 62 9 is_stmt 1 view .LVU41
 260 003e 0022     		movs	r2, #0
 261 0040 4FF40051 		mov	r1, #8192
 262 0044 0548     		ldr	r0, .L26+4
 263 0046 FFF7FEFF 		bl	HAL_GPIO_WritePin
 264              	.LVL30:
  63:USER/Hardware/Motor.c ****     }
 265              		.loc 1 63 9 view .LVU42
 266 004a 0122     		movs	r2, #1
 267 004c 1146     		mov	r1, r2
 268 004e 0448     		ldr	r0, .L26+8
 269 0050 FFF7FEFF 		bl	HAL_GPIO_WritePin
 270              	.LVL31:
ARM GAS  C:\Users\Lenovo\AppData\Local\Temp\ccdf5S8s.s 			page 7


 271              		.loc 1 65 1 is_stmt 0 view .LVU43
 272 0054 EBE7     		b	.L19
 273              	.L27:
 274 0056 00BF     		.align	2
 275              	.L26:
 276 0058 00000000 		.word	htim8
 277 005c 000C0140 		.word	1073810432
 278 0060 00180140 		.word	1073813504
 279              		.cfi_endproc
 280              	.LFE67:
 282              		.section	.text.MotorD_Speed,"ax",%progbits
 283              		.align	1
 284              		.global	MotorD_Speed
 285              		.syntax unified
 286              		.thumb
 287              		.thumb_func
 289              	MotorD_Speed:
 290              	.LVL32:
 291              	.LFB68:
  66:USER/Hardware/Motor.c **** 
  67:USER/Hardware/Motor.c **** /**
  68:USER/Hardware/Motor.c ****   * @brief  设置电机D的速度。
  69:USER/Hardware/Motor.c ****   * @param  Speed: 电机D的速度值，正数表示正转，负数表示反转，0表示停止。
  70:USER/Hardware/Motor.c ****   * @retval 无。
  71:USER/Hardware/Motor.c ****   */
  72:USER/Hardware/Motor.c **** void MotorD_Speed(float Speed)
  73:USER/Hardware/Motor.c **** {
 292              		.loc 1 73 1 is_stmt 1 view -0
 293              		.cfi_startproc
 294              		@ args = 0, pretend = 0, frame = 0
 295              		@ frame_needed = 0, uses_anonymous_args = 0
 296              		.loc 1 73 1 is_stmt 0 view .LVU45
 297 0000 38B5     		push	{r3, r4, r5, lr}
 298              	.LCFI3:
 299              		.cfi_def_cfa_offset 16
 300              		.cfi_offset 3, -16
 301              		.cfi_offset 4, -12
 302              		.cfi_offset 5, -8
 303              		.cfi_offset 14, -4
 304 0002 0446     		mov	r4, r0
  74:USER/Hardware/Motor.c ****     if(Speed >= 0)
 305              		.loc 1 74 5 is_stmt 1 view .LVU46
 306              		.loc 1 74 7 is_stmt 0 view .LVU47
 307 0004 0021     		movs	r1, #0
 308 0006 FFF7FEFF 		bl	__aeabi_fcmpge
 309              	.LVL33:
 310              		.loc 1 74 7 view .LVU48
 311 000a 98B1     		cbz	r0, .L33
  75:USER/Hardware/Motor.c ****     {
  76:USER/Hardware/Motor.c ****         __HAL_TIM_SetCompare(&htim8, TIM_CHANNEL_4, Speed); // 设置PWM占空比，控制速度
 312              		.loc 1 76 9 is_stmt 1 view .LVU49
 313 000c 144B     		ldr	r3, .L35
 314 000e 1D68     		ldr	r5, [r3]
 315 0010 2046     		mov	r0, r4
 316 0012 FFF7FEFF 		bl	__aeabi_f2uiz
 317              	.LVL34:
 318 0016 2864     		str	r0, [r5, #64]
ARM GAS  C:\Users\Lenovo\AppData\Local\Temp\ccdf5S8s.s 			page 8


  77:USER/Hardware/Motor.c ****         HAL_GPIO_WritePin(DIN1_GPIO_Port, DIN1_Pin, GPIO_PIN_SET);   // 电机D正转
 319              		.loc 1 77 9 view .LVU50
 320 0018 124C     		ldr	r4, .L35+4
 321              	.LVL35:
 322              		.loc 1 77 9 is_stmt 0 view .LVU51
 323 001a 0122     		movs	r2, #1
 324 001c 4FF48041 		mov	r1, #16384
 325 0020 2046     		mov	r0, r4
 326 0022 FFF7FEFF 		bl	HAL_GPIO_WritePin
 327              	.LVL36:
  78:USER/Hardware/Motor.c ****         HAL_GPIO_WritePin(DIN2_GPIO_Port, DIN2_Pin, GPIO_PIN_RESET); // 停止电机D反转
 328              		.loc 1 78 9 is_stmt 1 view .LVU52
 329 0026 0022     		movs	r2, #0
 330 0028 4FF40041 		mov	r1, #32768
 331 002c 2046     		mov	r0, r4
 332 002e FFF7FEFF 		bl	HAL_GPIO_WritePin
 333              	.LVL37:
 334              	.L28:
  79:USER/Hardware/Motor.c ****     }
  80:USER/Hardware/Motor.c ****     else
  81:USER/Hardware/Motor.c ****     {
  82:USER/Hardware/Motor.c ****         __HAL_TIM_SetCompare(&htim8, TIM_CHANNEL_4, -Speed); // 设置PWM占空比，控制速度
  83:USER/Hardware/Motor.c ****         HAL_GPIO_WritePin(DIN1_GPIO_Port, DIN1_Pin, GPIO_PIN_RESET); // 停止电机D正转
  84:USER/Hardware/Motor.c ****         HAL_GPIO_WritePin(DIN2_GPIO_Port, DIN2_Pin, GPIO_PIN_SET);   // 电机D反转
  85:USER/Hardware/Motor.c ****     }
  86:USER/Hardware/Motor.c **** }
 335              		.loc 1 86 1 is_stmt 0 view .LVU53
 336 0032 38BD     		pop	{r3, r4, r5, pc}
 337              	.LVL38:
 338              	.L33:
  82:USER/Hardware/Motor.c ****         HAL_GPIO_WritePin(DIN1_GPIO_Port, DIN1_Pin, GPIO_PIN_RESET); // 停止电机D正转
 339              		.loc 1 82 9 is_stmt 1 view .LVU54
 340 0034 04F10040 		add	r0, r4, #-2147483648
 341 0038 094B     		ldr	r3, .L35
 342 003a 1C68     		ldr	r4, [r3]
 343              	.LVL39:
  82:USER/Hardware/Motor.c ****         HAL_GPIO_WritePin(DIN1_GPIO_Port, DIN1_Pin, GPIO_PIN_RESET); // 停止电机D正转
 344              		.loc 1 82 9 is_stmt 0 view .LVU55
 345 003c FFF7FEFF 		bl	__aeabi_f2uiz
 346              	.LVL40:
 347 0040 2064     		str	r0, [r4, #64]
  83:USER/Hardware/Motor.c ****         HAL_GPIO_WritePin(DIN2_GPIO_Port, DIN2_Pin, GPIO_PIN_SET);   // 电机D反转
 348              		.loc 1 83 9 is_stmt 1 view .LVU56
 349 0042 084C     		ldr	r4, .L35+4
 350 0044 0022     		movs	r2, #0
 351 0046 4FF48041 		mov	r1, #16384
 352 004a 2046     		mov	r0, r4
 353 004c FFF7FEFF 		bl	HAL_GPIO_WritePin
 354              	.LVL41:
  84:USER/Hardware/Motor.c ****     }
 355              		.loc 1 84 9 view .LVU57
 356 0050 0122     		movs	r2, #1
 357 0052 4FF40041 		mov	r1, #32768
 358 0056 2046     		mov	r0, r4
 359 0058 FFF7FEFF 		bl	HAL_GPIO_WritePin
 360              	.LVL42:
 361              		.loc 1 86 1 is_stmt 0 view .LVU58
ARM GAS  C:\Users\Lenovo\AppData\Local\Temp\ccdf5S8s.s 			page 9


 362 005c E9E7     		b	.L28
 363              	.L36:
 364 005e 00BF     		.align	2
 365              	.L35:
 366 0060 00000000 		.word	htim8
 367 0064 000C0140 		.word	1073810432
 368              		.cfi_endproc
 369              	.LFE68:
 371              		.section	.text.Motor_Init,"ax",%progbits
 372              		.align	1
 373              		.global	Motor_Init
 374              		.syntax unified
 375              		.thumb
 376              		.thumb_func
 378              	Motor_Init:
 379              	.LFB69:
  87:USER/Hardware/Motor.c **** 
  88:USER/Hardware/Motor.c **** /**
  89:USER/Hardware/Motor.c ****   * @brief  初始化四个电机的PWM通道，并设置初始速度为0。
  90:USER/Hardware/Motor.c ****   * @param  无。
  91:USER/Hardware/Motor.c ****   * @retval 无。
  92:USER/Hardware/Motor.c ****   */
  93:USER/Hardware/Motor.c **** void Motor_Init(void)
  94:USER/Hardware/Motor.c **** {
 380              		.loc 1 94 1 is_stmt 1 view -0
 381              		.cfi_startproc
 382              		@ args = 0, pretend = 0, frame = 0
 383              		@ frame_needed = 0, uses_anonymous_args = 0
 384 0000 10B5     		push	{r4, lr}
 385              	.LCFI4:
 386              		.cfi_def_cfa_offset 8
 387              		.cfi_offset 4, -8
 388              		.cfi_offset 14, -4
  95:USER/Hardware/Motor.c ****     HAL_TIM_PWM_Start(&htim8, TIM_CHANNEL_1); // 启动PWM通道1
 389              		.loc 1 95 5 view .LVU60
 390 0002 0F4C     		ldr	r4, .L39
 391 0004 0021     		movs	r1, #0
 392 0006 2046     		mov	r0, r4
 393 0008 FFF7FEFF 		bl	HAL_TIM_PWM_Start
 394              	.LVL43:
  96:USER/Hardware/Motor.c ****     HAL_TIM_PWM_Start(&htim8, TIM_CHANNEL_2); // 启动PWM通道2
 395              		.loc 1 96 5 view .LVU61
 396 000c 0421     		movs	r1, #4
 397 000e 2046     		mov	r0, r4
 398 0010 FFF7FEFF 		bl	HAL_TIM_PWM_Start
 399              	.LVL44:
  97:USER/Hardware/Motor.c ****     HAL_TIM_PWM_Start(&htim8, TIM_CHANNEL_3); // 启动PWM通道3
 400              		.loc 1 97 5 view .LVU62
 401 0014 0821     		movs	r1, #8
 402 0016 2046     		mov	r0, r4
 403 0018 FFF7FEFF 		bl	HAL_TIM_PWM_Start
 404              	.LVL45:
  98:USER/Hardware/Motor.c ****     HAL_TIM_PWM_Start(&htim8, TIM_CHANNEL_4); // 启动PWM通道4
 405              		.loc 1 98 5 view .LVU63
 406 001c 0C21     		movs	r1, #12
 407 001e 2046     		mov	r0, r4
 408 0020 FFF7FEFF 		bl	HAL_TIM_PWM_Start
ARM GAS  C:\Users\Lenovo\AppData\Local\Temp\ccdf5S8s.s 			page 10


 409              	.LVL46:
  99:USER/Hardware/Motor.c ****     MotorA_Speed(0); // 初始化电机A速度为0
 410              		.loc 1 99 5 view .LVU64
 411 0024 0024     		movs	r4, #0
 412 0026 2046     		mov	r0, r4
 413 0028 FFF7FEFF 		bl	MotorA_Speed
 414              	.LVL47:
 100:USER/Hardware/Motor.c ****     MotorB_Speed(0); // 初始化电机B速度为0
 415              		.loc 1 100 5 view .LVU65
 416 002c 2046     		mov	r0, r4
 417 002e FFF7FEFF 		bl	MotorB_Speed
 418              	.LVL48:
 101:USER/Hardware/Motor.c ****     MotorC_Speed(0); // 初始化电机C速度为0
 419              		.loc 1 101 5 view .LVU66
 420 0032 2046     		mov	r0, r4
 421 0034 FFF7FEFF 		bl	MotorC_Speed
 422              	.LVL49:
 102:USER/Hardware/Motor.c ****     MotorD_Speed(0); // 初始化电机D速度为0
 423              		.loc 1 102 5 view .LVU67
 424 0038 2046     		mov	r0, r4
 425 003a FFF7FEFF 		bl	MotorD_Speed
 426              	.LVL50:
 103:USER/Hardware/Motor.c **** }
 427              		.loc 1 103 1 is_stmt 0 view .LVU68
 428 003e 10BD     		pop	{r4, pc}
 429              	.L40:
 430              		.align	2
 431              	.L39:
 432 0040 00000000 		.word	htim8
 433              		.cfi_endproc
 434              	.LFE69:
 436              		.text
 437              	.Letext0:
 438              		.file 2 "D:/arm-none-eabi-gcc/arm-none-eabi/include/machine/_default_types.h"
 439              		.file 3 "D:/arm-none-eabi-gcc/arm-none-eabi/include/sys/_stdint.h"
 440              		.file 4 "Drivers/CMSIS/Device/ST/STM32F1xx/Include/stm32f103xe.h"
 441              		.file 5 "Drivers/STM32F1xx_HAL_Driver/Inc/stm32f1xx_hal_def.h"
 442              		.file 6 "Drivers/STM32F1xx_HAL_Driver/Inc/stm32f1xx_hal_gpio.h"
 443              		.file 7 "Drivers/STM32F1xx_HAL_Driver/Inc/stm32f1xx_hal_dma.h"
 444              		.file 8 "Drivers/STM32F1xx_HAL_Driver/Inc/stm32f1xx_hal_tim.h"
 445              		.file 9 "Core/Inc/tim.h"
ARM GAS  C:\Users\Lenovo\AppData\Local\Temp\ccdf5S8s.s 			page 11

