ARM GAS  C:\Users\Lenovo\AppData\Local\Temp\cc08QWbk.s 			page 1


   1              		.cpu cortex-m3
   2              		.arch armv7-m
   3              		.fpu softvfp
   4              		.eabi_attribute 20, 1
   5              		.eabi_attribute 21, 1
   6              		.eabi_attribute 23, 3
   7              		.eabi_attribute 24, 1
   8              		.eabi_attribute 25, 1
   9              		.eabi_attribute 26, 1
  10              		.eabi_attribute 30, 1
  11              		.eabi_attribute 34, 1
  12              		.eabi_attribute 18, 4
  13              		.file	"tim.c"
  14              		.text
  15              	.Ltext0:
  16              		.cfi_sections	.debug_frame
  17              		.file 1 "Core/Src/tim.c"
  18              		.section	.text.MX_TIM1_Init,"ax",%progbits
  19              		.align	1
  20              		.global	MX_TIM1_Init
  21              		.syntax unified
  22              		.thumb
  23              		.thumb_func
  25              	MX_TIM1_Init:
  26              	.LFB65:
   1:Core/Src/tim.c **** /* USER CODE BEGIN Header */
   2:Core/Src/tim.c **** /**
   3:Core/Src/tim.c ****   ******************************************************************************
   4:Core/Src/tim.c ****   * @file    tim.c
   5:Core/Src/tim.c ****   * @brief   This file provides code for the configuration
   6:Core/Src/tim.c ****   *          of the TIM instances.
   7:Core/Src/tim.c ****   ******************************************************************************
   8:Core/Src/tim.c ****   * @attention
   9:Core/Src/tim.c ****   *
  10:Core/Src/tim.c ****   * Copyright (c) 2025 STMicroelectronics.
  11:Core/Src/tim.c ****   * All rights reserved.
  12:Core/Src/tim.c ****   *
  13:Core/Src/tim.c ****   * This software is licensed under terms that can be found in the LICENSE file
  14:Core/Src/tim.c ****   * in the root directory of this software component.
  15:Core/Src/tim.c ****   * If no LICENSE file comes with this software, it is provided AS-IS.
  16:Core/Src/tim.c ****   *
  17:Core/Src/tim.c ****   ******************************************************************************
  18:Core/Src/tim.c ****   */
  19:Core/Src/tim.c **** /* USER CODE END Header */
  20:Core/Src/tim.c **** /* Includes ------------------------------------------------------------------*/
  21:Core/Src/tim.c **** #include "tim.h"
  22:Core/Src/tim.c **** 
  23:Core/Src/tim.c **** /* USER CODE BEGIN 0 */
  24:Core/Src/tim.c **** 
  25:Core/Src/tim.c **** /* USER CODE END 0 */
  26:Core/Src/tim.c **** 
  27:Core/Src/tim.c **** TIM_HandleTypeDef htim1;
  28:Core/Src/tim.c **** TIM_HandleTypeDef htim3;
  29:Core/Src/tim.c **** TIM_HandleTypeDef htim4;
  30:Core/Src/tim.c **** TIM_HandleTypeDef htim5;
  31:Core/Src/tim.c **** TIM_HandleTypeDef htim8;
  32:Core/Src/tim.c **** 
ARM GAS  C:\Users\Lenovo\AppData\Local\Temp\cc08QWbk.s 			page 2


  33:Core/Src/tim.c **** /* TIM1 init function */
  34:Core/Src/tim.c **** void MX_TIM1_Init(void)
  35:Core/Src/tim.c **** {
  27              		.loc 1 35 1 view -0
  28              		.cfi_startproc
  29              		@ args = 0, pretend = 0, frame = 48
  30              		@ frame_needed = 0, uses_anonymous_args = 0
  31 0000 10B5     		push	{r4, lr}
  32              	.LCFI0:
  33              		.cfi_def_cfa_offset 8
  34              		.cfi_offset 4, -8
  35              		.cfi_offset 14, -4
  36 0002 8CB0     		sub	sp, sp, #48
  37              	.LCFI1:
  38              		.cfi_def_cfa_offset 56
  36:Core/Src/tim.c **** 
  37:Core/Src/tim.c ****   /* USER CODE BEGIN TIM1_Init 0 */
  38:Core/Src/tim.c **** 
  39:Core/Src/tim.c ****   /* USER CODE END TIM1_Init 0 */
  40:Core/Src/tim.c **** 
  41:Core/Src/tim.c ****   TIM_Encoder_InitTypeDef sConfig = {0};
  39              		.loc 1 41 3 view .LVU1
  40              		.loc 1 41 27 is_stmt 0 view .LVU2
  41 0004 03AC     		add	r4, sp, #12
  42 0006 2422     		movs	r2, #36
  43 0008 0021     		movs	r1, #0
  44 000a 2046     		mov	r0, r4
  45 000c FFF7FEFF 		bl	memset
  46              	.LVL0:
  42:Core/Src/tim.c ****   TIM_MasterConfigTypeDef sMasterConfig = {0};
  47              		.loc 1 42 3 is_stmt 1 view .LVU3
  48              		.loc 1 42 27 is_stmt 0 view .LVU4
  49 0010 0023     		movs	r3, #0
  50 0012 0193     		str	r3, [sp, #4]
  51 0014 0293     		str	r3, [sp, #8]
  43:Core/Src/tim.c **** 
  44:Core/Src/tim.c ****   /* USER CODE BEGIN TIM1_Init 1 */
  45:Core/Src/tim.c **** 
  46:Core/Src/tim.c ****   /* USER CODE END TIM1_Init 1 */
  47:Core/Src/tim.c ****   htim1.Instance = TIM1;
  52              		.loc 1 47 3 is_stmt 1 view .LVU5
  53              		.loc 1 47 18 is_stmt 0 view .LVU6
  54 0016 1248     		ldr	r0, .L7
  55 0018 124A     		ldr	r2, .L7+4
  56 001a 0260     		str	r2, [r0]
  48:Core/Src/tim.c ****   htim1.Init.Prescaler = 0;
  57              		.loc 1 48 3 is_stmt 1 view .LVU7
  58              		.loc 1 48 24 is_stmt 0 view .LVU8
  59 001c 4360     		str	r3, [r0, #4]
  49:Core/Src/tim.c ****   htim1.Init.CounterMode = TIM_COUNTERMODE_UP;
  60              		.loc 1 49 3 is_stmt 1 view .LVU9
  61              		.loc 1 49 26 is_stmt 0 view .LVU10
  62 001e 8360     		str	r3, [r0, #8]
  50:Core/Src/tim.c ****   htim1.Init.Period = 65535;
  63              		.loc 1 50 3 is_stmt 1 view .LVU11
  64              		.loc 1 50 21 is_stmt 0 view .LVU12
  65 0020 4FF6FF72 		movw	r2, #65535
ARM GAS  C:\Users\Lenovo\AppData\Local\Temp\cc08QWbk.s 			page 3


  66 0024 C260     		str	r2, [r0, #12]
  51:Core/Src/tim.c ****   htim1.Init.ClockDivision = TIM_CLOCKDIVISION_DIV1;
  67              		.loc 1 51 3 is_stmt 1 view .LVU13
  68              		.loc 1 51 28 is_stmt 0 view .LVU14
  69 0026 0361     		str	r3, [r0, #16]
  52:Core/Src/tim.c ****   htim1.Init.RepetitionCounter = 0;
  70              		.loc 1 52 3 is_stmt 1 view .LVU15
  71              		.loc 1 52 32 is_stmt 0 view .LVU16
  72 0028 4361     		str	r3, [r0, #20]
  53:Core/Src/tim.c ****   htim1.Init.AutoReloadPreload = TIM_AUTORELOAD_PRELOAD_DISABLE;
  73              		.loc 1 53 3 is_stmt 1 view .LVU17
  74              		.loc 1 53 32 is_stmt 0 view .LVU18
  75 002a 8361     		str	r3, [r0, #24]
  54:Core/Src/tim.c ****   sConfig.EncoderMode = TIM_ENCODERMODE_TI12;
  76              		.loc 1 54 3 is_stmt 1 view .LVU19
  77              		.loc 1 54 23 is_stmt 0 view .LVU20
  78 002c 0323     		movs	r3, #3
  79 002e 0393     		str	r3, [sp, #12]
  55:Core/Src/tim.c ****   sConfig.IC1Polarity = TIM_ICPOLARITY_RISING;
  80              		.loc 1 55 3 is_stmt 1 view .LVU21
  56:Core/Src/tim.c ****   sConfig.IC1Selection = TIM_ICSELECTION_DIRECTTI;
  81              		.loc 1 56 3 view .LVU22
  82              		.loc 1 56 24 is_stmt 0 view .LVU23
  83 0030 0123     		movs	r3, #1
  84 0032 0593     		str	r3, [sp, #20]
  57:Core/Src/tim.c ****   sConfig.IC1Prescaler = TIM_ICPSC_DIV1;
  85              		.loc 1 57 3 is_stmt 1 view .LVU24
  58:Core/Src/tim.c ****   sConfig.IC1Filter = 0;
  86              		.loc 1 58 3 view .LVU25
  59:Core/Src/tim.c ****   sConfig.IC2Polarity = TIM_ICPOLARITY_RISING;
  87              		.loc 1 59 3 view .LVU26
  60:Core/Src/tim.c ****   sConfig.IC2Selection = TIM_ICSELECTION_DIRECTTI;
  88              		.loc 1 60 3 view .LVU27
  89              		.loc 1 60 24 is_stmt 0 view .LVU28
  90 0034 0993     		str	r3, [sp, #36]
  61:Core/Src/tim.c ****   sConfig.IC2Prescaler = TIM_ICPSC_DIV1;
  91              		.loc 1 61 3 is_stmt 1 view .LVU29
  62:Core/Src/tim.c ****   sConfig.IC2Filter = 0;
  92              		.loc 1 62 3 view .LVU30
  63:Core/Src/tim.c ****   if (HAL_TIM_Encoder_Init(&htim1, &sConfig) != HAL_OK)
  93              		.loc 1 63 3 view .LVU31
  94              		.loc 1 63 7 is_stmt 0 view .LVU32
  95 0036 2146     		mov	r1, r4
  96 0038 FFF7FEFF 		bl	HAL_TIM_Encoder_Init
  97              	.LVL1:
  98              		.loc 1 63 6 discriminator 1 view .LVU33
  99 003c 48B9     		cbnz	r0, .L5
 100              	.L2:
  64:Core/Src/tim.c ****   {
  65:Core/Src/tim.c ****     Error_Handler();
  66:Core/Src/tim.c ****   }
  67:Core/Src/tim.c ****   sMasterConfig.MasterOutputTrigger = TIM_TRGO_RESET;
 101              		.loc 1 67 3 is_stmt 1 view .LVU34
 102              		.loc 1 67 37 is_stmt 0 view .LVU35
 103 003e 0023     		movs	r3, #0
 104 0040 0193     		str	r3, [sp, #4]
  68:Core/Src/tim.c ****   sMasterConfig.MasterSlaveMode = TIM_MASTERSLAVEMODE_DISABLE;
ARM GAS  C:\Users\Lenovo\AppData\Local\Temp\cc08QWbk.s 			page 4


 105              		.loc 1 68 3 is_stmt 1 view .LVU36
 106              		.loc 1 68 33 is_stmt 0 view .LVU37
 107 0042 0293     		str	r3, [sp, #8]
  69:Core/Src/tim.c ****   if (HAL_TIMEx_MasterConfigSynchronization(&htim1, &sMasterConfig) != HAL_OK)
 108              		.loc 1 69 3 is_stmt 1 view .LVU38
 109              		.loc 1 69 7 is_stmt 0 view .LVU39
 110 0044 01A9     		add	r1, sp, #4
 111 0046 0648     		ldr	r0, .L7
 112 0048 FFF7FEFF 		bl	HAL_TIMEx_MasterConfigSynchronization
 113              	.LVL2:
 114              		.loc 1 69 6 discriminator 1 view .LVU40
 115 004c 20B9     		cbnz	r0, .L6
 116              	.L1:
  70:Core/Src/tim.c ****   {
  71:Core/Src/tim.c ****     Error_Handler();
  72:Core/Src/tim.c ****   }
  73:Core/Src/tim.c ****   /* USER CODE BEGIN TIM1_Init 2 */
  74:Core/Src/tim.c **** 
  75:Core/Src/tim.c ****   /* USER CODE END TIM1_Init 2 */
  76:Core/Src/tim.c **** 
  77:Core/Src/tim.c **** }
 117              		.loc 1 77 1 view .LVU41
 118 004e 0CB0     		add	sp, sp, #48
 119              	.LCFI2:
 120              		.cfi_remember_state
 121              		.cfi_def_cfa_offset 8
 122              		@ sp needed
 123 0050 10BD     		pop	{r4, pc}
 124              	.L5:
 125              	.LCFI3:
 126              		.cfi_restore_state
  65:Core/Src/tim.c ****   }
 127              		.loc 1 65 5 is_stmt 1 view .LVU42
 128 0052 FFF7FEFF 		bl	Error_Handler
 129              	.LVL3:
 130 0056 F2E7     		b	.L2
 131              	.L6:
  71:Core/Src/tim.c ****   }
 132              		.loc 1 71 5 view .LVU43
 133 0058 FFF7FEFF 		bl	Error_Handler
 134              	.LVL4:
 135              		.loc 1 77 1 is_stmt 0 view .LVU44
 136 005c F7E7     		b	.L1
 137              	.L8:
 138 005e 00BF     		.align	2
 139              	.L7:
 140 0060 00000000 		.word	htim1
 141 0064 002C0140 		.word	1073818624
 142              		.cfi_endproc
 143              	.LFE65:
 145              		.section	.text.MX_TIM3_Init,"ax",%progbits
 146              		.align	1
 147              		.global	MX_TIM3_Init
 148              		.syntax unified
 149              		.thumb
 150              		.thumb_func
 152              	MX_TIM3_Init:
ARM GAS  C:\Users\Lenovo\AppData\Local\Temp\cc08QWbk.s 			page 5


 153              	.LFB66:
  78:Core/Src/tim.c **** /* TIM3 init function */
  79:Core/Src/tim.c **** void MX_TIM3_Init(void)
  80:Core/Src/tim.c **** {
 154              		.loc 1 80 1 is_stmt 1 view -0
 155              		.cfi_startproc
 156              		@ args = 0, pretend = 0, frame = 48
 157              		@ frame_needed = 0, uses_anonymous_args = 0
 158 0000 10B5     		push	{r4, lr}
 159              	.LCFI4:
 160              		.cfi_def_cfa_offset 8
 161              		.cfi_offset 4, -8
 162              		.cfi_offset 14, -4
 163 0002 8CB0     		sub	sp, sp, #48
 164              	.LCFI5:
 165              		.cfi_def_cfa_offset 56
  81:Core/Src/tim.c **** 
  82:Core/Src/tim.c ****   /* USER CODE BEGIN TIM3_Init 0 */
  83:Core/Src/tim.c **** 
  84:Core/Src/tim.c ****   /* USER CODE END TIM3_Init 0 */
  85:Core/Src/tim.c **** 
  86:Core/Src/tim.c ****   TIM_Encoder_InitTypeDef sConfig = {0};
 166              		.loc 1 86 3 view .LVU46
 167              		.loc 1 86 27 is_stmt 0 view .LVU47
 168 0004 03AC     		add	r4, sp, #12
 169 0006 2422     		movs	r2, #36
 170 0008 0021     		movs	r1, #0
 171 000a 2046     		mov	r0, r4
 172 000c FFF7FEFF 		bl	memset
 173              	.LVL5:
  87:Core/Src/tim.c ****   TIM_MasterConfigTypeDef sMasterConfig = {0};
 174              		.loc 1 87 3 is_stmt 1 view .LVU48
 175              		.loc 1 87 27 is_stmt 0 view .LVU49
 176 0010 0023     		movs	r3, #0
 177 0012 0193     		str	r3, [sp, #4]
 178 0014 0293     		str	r3, [sp, #8]
  88:Core/Src/tim.c **** 
  89:Core/Src/tim.c ****   /* USER CODE BEGIN TIM3_Init 1 */
  90:Core/Src/tim.c **** 
  91:Core/Src/tim.c ****   /* USER CODE END TIM3_Init 1 */
  92:Core/Src/tim.c ****   htim3.Instance = TIM3;
 179              		.loc 1 92 3 is_stmt 1 view .LVU50
 180              		.loc 1 92 18 is_stmt 0 view .LVU51
 181 0016 1148     		ldr	r0, .L15
 182 0018 114A     		ldr	r2, .L15+4
 183 001a 0260     		str	r2, [r0]
  93:Core/Src/tim.c ****   htim3.Init.Prescaler = 0;
 184              		.loc 1 93 3 is_stmt 1 view .LVU52
 185              		.loc 1 93 24 is_stmt 0 view .LVU53
 186 001c 4360     		str	r3, [r0, #4]
  94:Core/Src/tim.c ****   htim3.Init.CounterMode = TIM_COUNTERMODE_UP;
 187              		.loc 1 94 3 is_stmt 1 view .LVU54
 188              		.loc 1 94 26 is_stmt 0 view .LVU55
 189 001e 8360     		str	r3, [r0, #8]
  95:Core/Src/tim.c ****   htim3.Init.Period = 65535;
 190              		.loc 1 95 3 is_stmt 1 view .LVU56
 191              		.loc 1 95 21 is_stmt 0 view .LVU57
ARM GAS  C:\Users\Lenovo\AppData\Local\Temp\cc08QWbk.s 			page 6


 192 0020 4FF6FF72 		movw	r2, #65535
 193 0024 C260     		str	r2, [r0, #12]
  96:Core/Src/tim.c ****   htim3.Init.ClockDivision = TIM_CLOCKDIVISION_DIV1;
 194              		.loc 1 96 3 is_stmt 1 view .LVU58
 195              		.loc 1 96 28 is_stmt 0 view .LVU59
 196 0026 0361     		str	r3, [r0, #16]
  97:Core/Src/tim.c ****   htim3.Init.AutoReloadPreload = TIM_AUTORELOAD_PRELOAD_DISABLE;
 197              		.loc 1 97 3 is_stmt 1 view .LVU60
 198              		.loc 1 97 32 is_stmt 0 view .LVU61
 199 0028 8361     		str	r3, [r0, #24]
  98:Core/Src/tim.c ****   sConfig.EncoderMode = TIM_ENCODERMODE_TI12;
 200              		.loc 1 98 3 is_stmt 1 view .LVU62
 201              		.loc 1 98 23 is_stmt 0 view .LVU63
 202 002a 0323     		movs	r3, #3
 203 002c 0393     		str	r3, [sp, #12]
  99:Core/Src/tim.c ****   sConfig.IC1Polarity = TIM_ICPOLARITY_RISING;
 204              		.loc 1 99 3 is_stmt 1 view .LVU64
 100:Core/Src/tim.c ****   sConfig.IC1Selection = TIM_ICSELECTION_DIRECTTI;
 205              		.loc 1 100 3 view .LVU65
 206              		.loc 1 100 24 is_stmt 0 view .LVU66
 207 002e 0123     		movs	r3, #1
 208 0030 0593     		str	r3, [sp, #20]
 101:Core/Src/tim.c ****   sConfig.IC1Prescaler = TIM_ICPSC_DIV1;
 209              		.loc 1 101 3 is_stmt 1 view .LVU67
 102:Core/Src/tim.c ****   sConfig.IC1Filter = 0;
 210              		.loc 1 102 3 view .LVU68
 103:Core/Src/tim.c ****   sConfig.IC2Polarity = TIM_ICPOLARITY_RISING;
 211              		.loc 1 103 3 view .LVU69
 104:Core/Src/tim.c ****   sConfig.IC2Selection = TIM_ICSELECTION_DIRECTTI;
 212              		.loc 1 104 3 view .LVU70
 213              		.loc 1 104 24 is_stmt 0 view .LVU71
 214 0032 0993     		str	r3, [sp, #36]
 105:Core/Src/tim.c ****   sConfig.IC2Prescaler = TIM_ICPSC_DIV1;
 215              		.loc 1 105 3 is_stmt 1 view .LVU72
 106:Core/Src/tim.c ****   sConfig.IC2Filter = 0;
 216              		.loc 1 106 3 view .LVU73
 107:Core/Src/tim.c ****   if (HAL_TIM_Encoder_Init(&htim3, &sConfig) != HAL_OK)
 217              		.loc 1 107 3 view .LVU74
 218              		.loc 1 107 7 is_stmt 0 view .LVU75
 219 0034 2146     		mov	r1, r4
 220 0036 FFF7FEFF 		bl	HAL_TIM_Encoder_Init
 221              	.LVL6:
 222              		.loc 1 107 6 discriminator 1 view .LVU76
 223 003a 48B9     		cbnz	r0, .L13
 224              	.L10:
 108:Core/Src/tim.c ****   {
 109:Core/Src/tim.c ****     Error_Handler();
 110:Core/Src/tim.c ****   }
 111:Core/Src/tim.c ****   sMasterConfig.MasterOutputTrigger = TIM_TRGO_RESET;
 225              		.loc 1 111 3 is_stmt 1 view .LVU77
 226              		.loc 1 111 37 is_stmt 0 view .LVU78
 227 003c 0023     		movs	r3, #0
 228 003e 0193     		str	r3, [sp, #4]
 112:Core/Src/tim.c ****   sMasterConfig.MasterSlaveMode = TIM_MASTERSLAVEMODE_DISABLE;
 229              		.loc 1 112 3 is_stmt 1 view .LVU79
 230              		.loc 1 112 33 is_stmt 0 view .LVU80
 231 0040 0293     		str	r3, [sp, #8]
ARM GAS  C:\Users\Lenovo\AppData\Local\Temp\cc08QWbk.s 			page 7


 113:Core/Src/tim.c ****   if (HAL_TIMEx_MasterConfigSynchronization(&htim3, &sMasterConfig) != HAL_OK)
 232              		.loc 1 113 3 is_stmt 1 view .LVU81
 233              		.loc 1 113 7 is_stmt 0 view .LVU82
 234 0042 01A9     		add	r1, sp, #4
 235 0044 0548     		ldr	r0, .L15
 236 0046 FFF7FEFF 		bl	HAL_TIMEx_MasterConfigSynchronization
 237              	.LVL7:
 238              		.loc 1 113 6 discriminator 1 view .LVU83
 239 004a 20B9     		cbnz	r0, .L14
 240              	.L9:
 114:Core/Src/tim.c ****   {
 115:Core/Src/tim.c ****     Error_Handler();
 116:Core/Src/tim.c ****   }
 117:Core/Src/tim.c ****   /* USER CODE BEGIN TIM3_Init 2 */
 118:Core/Src/tim.c **** 
 119:Core/Src/tim.c ****   /* USER CODE END TIM3_Init 2 */
 120:Core/Src/tim.c **** 
 121:Core/Src/tim.c **** }
 241              		.loc 1 121 1 view .LVU84
 242 004c 0CB0     		add	sp, sp, #48
 243              	.LCFI6:
 244              		.cfi_remember_state
 245              		.cfi_def_cfa_offset 8
 246              		@ sp needed
 247 004e 10BD     		pop	{r4, pc}
 248              	.L13:
 249              	.LCFI7:
 250              		.cfi_restore_state
 109:Core/Src/tim.c ****   }
 251              		.loc 1 109 5 is_stmt 1 view .LVU85
 252 0050 FFF7FEFF 		bl	Error_Handler
 253              	.LVL8:
 254 0054 F2E7     		b	.L10
 255              	.L14:
 115:Core/Src/tim.c ****   }
 256              		.loc 1 115 5 view .LVU86
 257 0056 FFF7FEFF 		bl	Error_Handler
 258              	.LVL9:
 259              		.loc 1 121 1 is_stmt 0 view .LVU87
 260 005a F7E7     		b	.L9
 261              	.L16:
 262              		.align	2
 263              	.L15:
 264 005c 00000000 		.word	htim3
 265 0060 00040040 		.word	1073742848
 266              		.cfi_endproc
 267              	.LFE66:
 269              		.section	.text.MX_TIM4_Init,"ax",%progbits
 270              		.align	1
 271              		.global	MX_TIM4_Init
 272              		.syntax unified
 273              		.thumb
 274              		.thumb_func
 276              	MX_TIM4_Init:
 277              	.LFB67:
 122:Core/Src/tim.c **** /* TIM4 init function */
 123:Core/Src/tim.c **** void MX_TIM4_Init(void)
ARM GAS  C:\Users\Lenovo\AppData\Local\Temp\cc08QWbk.s 			page 8


 124:Core/Src/tim.c **** {
 278              		.loc 1 124 1 is_stmt 1 view -0
 279              		.cfi_startproc
 280              		@ args = 0, pretend = 0, frame = 48
 281              		@ frame_needed = 0, uses_anonymous_args = 0
 282 0000 10B5     		push	{r4, lr}
 283              	.LCFI8:
 284              		.cfi_def_cfa_offset 8
 285              		.cfi_offset 4, -8
 286              		.cfi_offset 14, -4
 287 0002 8CB0     		sub	sp, sp, #48
 288              	.LCFI9:
 289              		.cfi_def_cfa_offset 56
 125:Core/Src/tim.c **** 
 126:Core/Src/tim.c ****   /* USER CODE BEGIN TIM4_Init 0 */
 127:Core/Src/tim.c **** 
 128:Core/Src/tim.c ****   /* USER CODE END TIM4_Init 0 */
 129:Core/Src/tim.c **** 
 130:Core/Src/tim.c ****   TIM_Encoder_InitTypeDef sConfig = {0};
 290              		.loc 1 130 3 view .LVU89
 291              		.loc 1 130 27 is_stmt 0 view .LVU90
 292 0004 03AC     		add	r4, sp, #12
 293 0006 2422     		movs	r2, #36
 294 0008 0021     		movs	r1, #0
 295 000a 2046     		mov	r0, r4
 296 000c FFF7FEFF 		bl	memset
 297              	.LVL10:
 131:Core/Src/tim.c ****   TIM_MasterConfigTypeDef sMasterConfig = {0};
 298              		.loc 1 131 3 is_stmt 1 view .LVU91
 299              		.loc 1 131 27 is_stmt 0 view .LVU92
 300 0010 0023     		movs	r3, #0
 301 0012 0193     		str	r3, [sp, #4]
 302 0014 0293     		str	r3, [sp, #8]
 132:Core/Src/tim.c **** 
 133:Core/Src/tim.c ****   /* USER CODE BEGIN TIM4_Init 1 */
 134:Core/Src/tim.c **** 
 135:Core/Src/tim.c ****   /* USER CODE END TIM4_Init 1 */
 136:Core/Src/tim.c ****   htim4.Instance = TIM4;
 303              		.loc 1 136 3 is_stmt 1 view .LVU93
 304              		.loc 1 136 18 is_stmt 0 view .LVU94
 305 0016 1148     		ldr	r0, .L23
 306 0018 114A     		ldr	r2, .L23+4
 307 001a 0260     		str	r2, [r0]
 137:Core/Src/tim.c ****   htim4.Init.Prescaler = 0;
 308              		.loc 1 137 3 is_stmt 1 view .LVU95
 309              		.loc 1 137 24 is_stmt 0 view .LVU96
 310 001c 4360     		str	r3, [r0, #4]
 138:Core/Src/tim.c ****   htim4.Init.CounterMode = TIM_COUNTERMODE_UP;
 311              		.loc 1 138 3 is_stmt 1 view .LVU97
 312              		.loc 1 138 26 is_stmt 0 view .LVU98
 313 001e 8360     		str	r3, [r0, #8]
 139:Core/Src/tim.c ****   htim4.Init.Period = 65535;
 314              		.loc 1 139 3 is_stmt 1 view .LVU99
 315              		.loc 1 139 21 is_stmt 0 view .LVU100
 316 0020 4FF6FF72 		movw	r2, #65535
 317 0024 C260     		str	r2, [r0, #12]
 140:Core/Src/tim.c ****   htim4.Init.ClockDivision = TIM_CLOCKDIVISION_DIV1;
ARM GAS  C:\Users\Lenovo\AppData\Local\Temp\cc08QWbk.s 			page 9


 318              		.loc 1 140 3 is_stmt 1 view .LVU101
 319              		.loc 1 140 28 is_stmt 0 view .LVU102
 320 0026 0361     		str	r3, [r0, #16]
 141:Core/Src/tim.c ****   htim4.Init.AutoReloadPreload = TIM_AUTORELOAD_PRELOAD_DISABLE;
 321              		.loc 1 141 3 is_stmt 1 view .LVU103
 322              		.loc 1 141 32 is_stmt 0 view .LVU104
 323 0028 8361     		str	r3, [r0, #24]
 142:Core/Src/tim.c ****   sConfig.EncoderMode = TIM_ENCODERMODE_TI12;
 324              		.loc 1 142 3 is_stmt 1 view .LVU105
 325              		.loc 1 142 23 is_stmt 0 view .LVU106
 326 002a 0323     		movs	r3, #3
 327 002c 0393     		str	r3, [sp, #12]
 143:Core/Src/tim.c ****   sConfig.IC1Polarity = TIM_ICPOLARITY_RISING;
 328              		.loc 1 143 3 is_stmt 1 view .LVU107
 144:Core/Src/tim.c ****   sConfig.IC1Selection = TIM_ICSELECTION_DIRECTTI;
 329              		.loc 1 144 3 view .LVU108
 330              		.loc 1 144 24 is_stmt 0 view .LVU109
 331 002e 0123     		movs	r3, #1
 332 0030 0593     		str	r3, [sp, #20]
 145:Core/Src/tim.c ****   sConfig.IC1Prescaler = TIM_ICPSC_DIV1;
 333              		.loc 1 145 3 is_stmt 1 view .LVU110
 146:Core/Src/tim.c ****   sConfig.IC1Filter = 0;
 334              		.loc 1 146 3 view .LVU111
 147:Core/Src/tim.c ****   sConfig.IC2Polarity = TIM_ICPOLARITY_RISING;
 335              		.loc 1 147 3 view .LVU112
 148:Core/Src/tim.c ****   sConfig.IC2Selection = TIM_ICSELECTION_DIRECTTI;
 336              		.loc 1 148 3 view .LVU113
 337              		.loc 1 148 24 is_stmt 0 view .LVU114
 338 0032 0993     		str	r3, [sp, #36]
 149:Core/Src/tim.c ****   sConfig.IC2Prescaler = TIM_ICPSC_DIV1;
 339              		.loc 1 149 3 is_stmt 1 view .LVU115
 150:Core/Src/tim.c ****   sConfig.IC2Filter = 0;
 340              		.loc 1 150 3 view .LVU116
 151:Core/Src/tim.c ****   if (HAL_TIM_Encoder_Init(&htim4, &sConfig) != HAL_OK)
 341              		.loc 1 151 3 view .LVU117
 342              		.loc 1 151 7 is_stmt 0 view .LVU118
 343 0034 2146     		mov	r1, r4
 344 0036 FFF7FEFF 		bl	HAL_TIM_Encoder_Init
 345              	.LVL11:
 346              		.loc 1 151 6 discriminator 1 view .LVU119
 347 003a 48B9     		cbnz	r0, .L21
 348              	.L18:
 152:Core/Src/tim.c ****   {
 153:Core/Src/tim.c ****     Error_Handler();
 154:Core/Src/tim.c ****   }
 155:Core/Src/tim.c ****   sMasterConfig.MasterOutputTrigger = TIM_TRGO_RESET;
 349              		.loc 1 155 3 is_stmt 1 view .LVU120
 350              		.loc 1 155 37 is_stmt 0 view .LVU121
 351 003c 0023     		movs	r3, #0
 352 003e 0193     		str	r3, [sp, #4]
 156:Core/Src/tim.c ****   sMasterConfig.MasterSlaveMode = TIM_MASTERSLAVEMODE_DISABLE;
 353              		.loc 1 156 3 is_stmt 1 view .LVU122
 354              		.loc 1 156 33 is_stmt 0 view .LVU123
 355 0040 0293     		str	r3, [sp, #8]
 157:Core/Src/tim.c ****   if (HAL_TIMEx_MasterConfigSynchronization(&htim4, &sMasterConfig) != HAL_OK)
 356              		.loc 1 157 3 is_stmt 1 view .LVU124
 357              		.loc 1 157 7 is_stmt 0 view .LVU125
ARM GAS  C:\Users\Lenovo\AppData\Local\Temp\cc08QWbk.s 			page 10


 358 0042 01A9     		add	r1, sp, #4
 359 0044 0548     		ldr	r0, .L23
 360 0046 FFF7FEFF 		bl	HAL_TIMEx_MasterConfigSynchronization
 361              	.LVL12:
 362              		.loc 1 157 6 discriminator 1 view .LVU126
 363 004a 20B9     		cbnz	r0, .L22
 364              	.L17:
 158:Core/Src/tim.c ****   {
 159:Core/Src/tim.c ****     Error_Handler();
 160:Core/Src/tim.c ****   }
 161:Core/Src/tim.c ****   /* USER CODE BEGIN TIM4_Init 2 */
 162:Core/Src/tim.c **** 
 163:Core/Src/tim.c ****   /* USER CODE END TIM4_Init 2 */
 164:Core/Src/tim.c **** 
 165:Core/Src/tim.c **** }
 365              		.loc 1 165 1 view .LVU127
 366 004c 0CB0     		add	sp, sp, #48
 367              	.LCFI10:
 368              		.cfi_remember_state
 369              		.cfi_def_cfa_offset 8
 370              		@ sp needed
 371 004e 10BD     		pop	{r4, pc}
 372              	.L21:
 373              	.LCFI11:
 374              		.cfi_restore_state
 153:Core/Src/tim.c ****   }
 375              		.loc 1 153 5 is_stmt 1 view .LVU128
 376 0050 FFF7FEFF 		bl	Error_Handler
 377              	.LVL13:
 378 0054 F2E7     		b	.L18
 379              	.L22:
 159:Core/Src/tim.c ****   }
 380              		.loc 1 159 5 view .LVU129
 381 0056 FFF7FEFF 		bl	Error_Handler
 382              	.LVL14:
 383              		.loc 1 165 1 is_stmt 0 view .LVU130
 384 005a F7E7     		b	.L17
 385              	.L24:
 386              		.align	2
 387              	.L23:
 388 005c 00000000 		.word	htim4
 389 0060 00080040 		.word	1073743872
 390              		.cfi_endproc
 391              	.LFE67:
 393              		.section	.text.MX_TIM5_Init,"ax",%progbits
 394              		.align	1
 395              		.global	MX_TIM5_Init
 396              		.syntax unified
 397              		.thumb
 398              		.thumb_func
 400              	MX_TIM5_Init:
 401              	.LFB68:
 166:Core/Src/tim.c **** /* TIM5 init function */
 167:Core/Src/tim.c **** void MX_TIM5_Init(void)
 168:Core/Src/tim.c **** {
 402              		.loc 1 168 1 is_stmt 1 view -0
 403              		.cfi_startproc
ARM GAS  C:\Users\Lenovo\AppData\Local\Temp\cc08QWbk.s 			page 11


 404              		@ args = 0, pretend = 0, frame = 48
 405              		@ frame_needed = 0, uses_anonymous_args = 0
 406 0000 10B5     		push	{r4, lr}
 407              	.LCFI12:
 408              		.cfi_def_cfa_offset 8
 409              		.cfi_offset 4, -8
 410              		.cfi_offset 14, -4
 411 0002 8CB0     		sub	sp, sp, #48
 412              	.LCFI13:
 413              		.cfi_def_cfa_offset 56
 169:Core/Src/tim.c **** 
 170:Core/Src/tim.c ****   /* USER CODE BEGIN TIM5_Init 0 */
 171:Core/Src/tim.c **** 
 172:Core/Src/tim.c ****   /* USER CODE END TIM5_Init 0 */
 173:Core/Src/tim.c **** 
 174:Core/Src/tim.c ****   TIM_Encoder_InitTypeDef sConfig = {0};
 414              		.loc 1 174 3 view .LVU132
 415              		.loc 1 174 27 is_stmt 0 view .LVU133
 416 0004 03AC     		add	r4, sp, #12
 417 0006 2422     		movs	r2, #36
 418 0008 0021     		movs	r1, #0
 419 000a 2046     		mov	r0, r4
 420 000c FFF7FEFF 		bl	memset
 421              	.LVL15:
 175:Core/Src/tim.c ****   TIM_MasterConfigTypeDef sMasterConfig = {0};
 422              		.loc 1 175 3 is_stmt 1 view .LVU134
 423              		.loc 1 175 27 is_stmt 0 view .LVU135
 424 0010 0023     		movs	r3, #0
 425 0012 0193     		str	r3, [sp, #4]
 426 0014 0293     		str	r3, [sp, #8]
 176:Core/Src/tim.c **** 
 177:Core/Src/tim.c ****   /* USER CODE BEGIN TIM5_Init 1 */
 178:Core/Src/tim.c **** 
 179:Core/Src/tim.c ****   /* USER CODE END TIM5_Init 1 */
 180:Core/Src/tim.c ****   htim5.Instance = TIM5;
 427              		.loc 1 180 3 is_stmt 1 view .LVU136
 428              		.loc 1 180 18 is_stmt 0 view .LVU137
 429 0016 1148     		ldr	r0, .L31
 430 0018 114A     		ldr	r2, .L31+4
 431 001a 0260     		str	r2, [r0]
 181:Core/Src/tim.c ****   htim5.Init.Prescaler = 0;
 432              		.loc 1 181 3 is_stmt 1 view .LVU138
 433              		.loc 1 181 24 is_stmt 0 view .LVU139
 434 001c 4360     		str	r3, [r0, #4]
 182:Core/Src/tim.c ****   htim5.Init.CounterMode = TIM_COUNTERMODE_UP;
 435              		.loc 1 182 3 is_stmt 1 view .LVU140
 436              		.loc 1 182 26 is_stmt 0 view .LVU141
 437 001e 8360     		str	r3, [r0, #8]
 183:Core/Src/tim.c ****   htim5.Init.Period = 65535;
 438              		.loc 1 183 3 is_stmt 1 view .LVU142
 439              		.loc 1 183 21 is_stmt 0 view .LVU143
 440 0020 4FF6FF72 		movw	r2, #65535
 441 0024 C260     		str	r2, [r0, #12]
 184:Core/Src/tim.c ****   htim5.Init.ClockDivision = TIM_CLOCKDIVISION_DIV1;
 442              		.loc 1 184 3 is_stmt 1 view .LVU144
 443              		.loc 1 184 28 is_stmt 0 view .LVU145
 444 0026 0361     		str	r3, [r0, #16]
ARM GAS  C:\Users\Lenovo\AppData\Local\Temp\cc08QWbk.s 			page 12


 185:Core/Src/tim.c ****   htim5.Init.AutoReloadPreload = TIM_AUTORELOAD_PRELOAD_DISABLE;
 445              		.loc 1 185 3 is_stmt 1 view .LVU146
 446              		.loc 1 185 32 is_stmt 0 view .LVU147
 447 0028 8361     		str	r3, [r0, #24]
 186:Core/Src/tim.c ****   sConfig.EncoderMode = TIM_ENCODERMODE_TI12;
 448              		.loc 1 186 3 is_stmt 1 view .LVU148
 449              		.loc 1 186 23 is_stmt 0 view .LVU149
 450 002a 0323     		movs	r3, #3
 451 002c 0393     		str	r3, [sp, #12]
 187:Core/Src/tim.c ****   sConfig.IC1Polarity = TIM_ICPOLARITY_RISING;
 452              		.loc 1 187 3 is_stmt 1 view .LVU150
 188:Core/Src/tim.c ****   sConfig.IC1Selection = TIM_ICSELECTION_DIRECTTI;
 453              		.loc 1 188 3 view .LVU151
 454              		.loc 1 188 24 is_stmt 0 view .LVU152
 455 002e 0123     		movs	r3, #1
 456 0030 0593     		str	r3, [sp, #20]
 189:Core/Src/tim.c ****   sConfig.IC1Prescaler = TIM_ICPSC_DIV1;
 457              		.loc 1 189 3 is_stmt 1 view .LVU153
 190:Core/Src/tim.c ****   sConfig.IC1Filter = 0;
 458              		.loc 1 190 3 view .LVU154
 191:Core/Src/tim.c ****   sConfig.IC2Polarity = TIM_ICPOLARITY_RISING;
 459              		.loc 1 191 3 view .LVU155
 192:Core/Src/tim.c ****   sConfig.IC2Selection = TIM_ICSELECTION_DIRECTTI;
 460              		.loc 1 192 3 view .LVU156
 461              		.loc 1 192 24 is_stmt 0 view .LVU157
 462 0032 0993     		str	r3, [sp, #36]
 193:Core/Src/tim.c ****   sConfig.IC2Prescaler = TIM_ICPSC_DIV1;
 463              		.loc 1 193 3 is_stmt 1 view .LVU158
 194:Core/Src/tim.c ****   sConfig.IC2Filter = 0;
 464              		.loc 1 194 3 view .LVU159
 195:Core/Src/tim.c ****   if (HAL_TIM_Encoder_Init(&htim5, &sConfig) != HAL_OK)
 465              		.loc 1 195 3 view .LVU160
 466              		.loc 1 195 7 is_stmt 0 view .LVU161
 467 0034 2146     		mov	r1, r4
 468 0036 FFF7FEFF 		bl	HAL_TIM_Encoder_Init
 469              	.LVL16:
 470              		.loc 1 195 6 discriminator 1 view .LVU162
 471 003a 48B9     		cbnz	r0, .L29
 472              	.L26:
 196:Core/Src/tim.c ****   {
 197:Core/Src/tim.c ****     Error_Handler();
 198:Core/Src/tim.c ****   }
 199:Core/Src/tim.c ****   sMasterConfig.MasterOutputTrigger = TIM_TRGO_RESET;
 473              		.loc 1 199 3 is_stmt 1 view .LVU163
 474              		.loc 1 199 37 is_stmt 0 view .LVU164
 475 003c 0023     		movs	r3, #0
 476 003e 0193     		str	r3, [sp, #4]
 200:Core/Src/tim.c ****   sMasterConfig.MasterSlaveMode = TIM_MASTERSLAVEMODE_DISABLE;
 477              		.loc 1 200 3 is_stmt 1 view .LVU165
 478              		.loc 1 200 33 is_stmt 0 view .LVU166
 479 0040 0293     		str	r3, [sp, #8]
 201:Core/Src/tim.c ****   if (HAL_TIMEx_MasterConfigSynchronization(&htim5, &sMasterConfig) != HAL_OK)
 480              		.loc 1 201 3 is_stmt 1 view .LVU167
 481              		.loc 1 201 7 is_stmt 0 view .LVU168
 482 0042 01A9     		add	r1, sp, #4
 483 0044 0548     		ldr	r0, .L31
 484 0046 FFF7FEFF 		bl	HAL_TIMEx_MasterConfigSynchronization
ARM GAS  C:\Users\Lenovo\AppData\Local\Temp\cc08QWbk.s 			page 13


 485              	.LVL17:
 486              		.loc 1 201 6 discriminator 1 view .LVU169
 487 004a 20B9     		cbnz	r0, .L30
 488              	.L25:
 202:Core/Src/tim.c ****   {
 203:Core/Src/tim.c ****     Error_Handler();
 204:Core/Src/tim.c ****   }
 205:Core/Src/tim.c ****   /* USER CODE BEGIN TIM5_Init 2 */
 206:Core/Src/tim.c **** 
 207:Core/Src/tim.c ****   /* USER CODE END TIM5_Init 2 */
 208:Core/Src/tim.c **** 
 209:Core/Src/tim.c **** }
 489              		.loc 1 209 1 view .LVU170
 490 004c 0CB0     		add	sp, sp, #48
 491              	.LCFI14:
 492              		.cfi_remember_state
 493              		.cfi_def_cfa_offset 8
 494              		@ sp needed
 495 004e 10BD     		pop	{r4, pc}
 496              	.L29:
 497              	.LCFI15:
 498              		.cfi_restore_state
 197:Core/Src/tim.c ****   }
 499              		.loc 1 197 5 is_stmt 1 view .LVU171
 500 0050 FFF7FEFF 		bl	Error_Handler
 501              	.LVL18:
 502 0054 F2E7     		b	.L26
 503              	.L30:
 203:Core/Src/tim.c ****   }
 504              		.loc 1 203 5 view .LVU172
 505 0056 FFF7FEFF 		bl	Error_Handler
 506              	.LVL19:
 507              		.loc 1 209 1 is_stmt 0 view .LVU173
 508 005a F7E7     		b	.L25
 509              	.L32:
 510              		.align	2
 511              	.L31:
 512 005c 00000000 		.word	htim5
 513 0060 000C0040 		.word	1073744896
 514              		.cfi_endproc
 515              	.LFE68:
 517              		.section	.text.HAL_TIM_Encoder_MspInit,"ax",%progbits
 518              		.align	1
 519              		.global	HAL_TIM_Encoder_MspInit
 520              		.syntax unified
 521              		.thumb
 522              		.thumb_func
 524              	HAL_TIM_Encoder_MspInit:
 525              	.LVL20:
 526              	.LFB70:
 210:Core/Src/tim.c **** /* TIM8 init function */
 211:Core/Src/tim.c **** void MX_TIM8_Init(void)
 212:Core/Src/tim.c **** {
 213:Core/Src/tim.c **** 
 214:Core/Src/tim.c ****   /* USER CODE BEGIN TIM8_Init 0 */
 215:Core/Src/tim.c **** 
 216:Core/Src/tim.c ****   /* USER CODE END TIM8_Init 0 */
ARM GAS  C:\Users\Lenovo\AppData\Local\Temp\cc08QWbk.s 			page 14


 217:Core/Src/tim.c **** 
 218:Core/Src/tim.c ****   TIM_ClockConfigTypeDef sClockSourceConfig = {0};
 219:Core/Src/tim.c ****   TIM_MasterConfigTypeDef sMasterConfig = {0};
 220:Core/Src/tim.c ****   TIM_OC_InitTypeDef sConfigOC = {0};
 221:Core/Src/tim.c ****   TIM_BreakDeadTimeConfigTypeDef sBreakDeadTimeConfig = {0};
 222:Core/Src/tim.c **** 
 223:Core/Src/tim.c ****   /* USER CODE BEGIN TIM8_Init 1 */
 224:Core/Src/tim.c **** 
 225:Core/Src/tim.c ****   /* USER CODE END TIM8_Init 1 */
 226:Core/Src/tim.c ****   htim8.Instance = TIM8;
 227:Core/Src/tim.c ****   htim8.Init.Prescaler = 719;
 228:Core/Src/tim.c ****   htim8.Init.CounterMode = TIM_COUNTERMODE_UP;
 229:Core/Src/tim.c ****   htim8.Init.Period = 99;
 230:Core/Src/tim.c ****   htim8.Init.ClockDivision = TIM_CLOCKDIVISION_DIV1;
 231:Core/Src/tim.c ****   htim8.Init.RepetitionCounter = 0;
 232:Core/Src/tim.c ****   htim8.Init.AutoReloadPreload = TIM_AUTORELOAD_PRELOAD_DISABLE;
 233:Core/Src/tim.c ****   if (HAL_TIM_Base_Init(&htim8) != HAL_OK)
 234:Core/Src/tim.c ****   {
 235:Core/Src/tim.c ****     Error_Handler();
 236:Core/Src/tim.c ****   }
 237:Core/Src/tim.c ****   sClockSourceConfig.ClockSource = TIM_CLOCKSOURCE_INTERNAL;
 238:Core/Src/tim.c ****   if (HAL_TIM_ConfigClockSource(&htim8, &sClockSourceConfig) != HAL_OK)
 239:Core/Src/tim.c ****   {
 240:Core/Src/tim.c ****     Error_Handler();
 241:Core/Src/tim.c ****   }
 242:Core/Src/tim.c ****   if (HAL_TIM_PWM_Init(&htim8) != HAL_OK)
 243:Core/Src/tim.c ****   {
 244:Core/Src/tim.c ****     Error_Handler();
 245:Core/Src/tim.c ****   }
 246:Core/Src/tim.c ****   sMasterConfig.MasterOutputTrigger = TIM_TRGO_RESET;
 247:Core/Src/tim.c ****   sMasterConfig.MasterSlaveMode = TIM_MASTERSLAVEMODE_DISABLE;
 248:Core/Src/tim.c ****   if (HAL_TIMEx_MasterConfigSynchronization(&htim8, &sMasterConfig) != HAL_OK)
 249:Core/Src/tim.c ****   {
 250:Core/Src/tim.c ****     Error_Handler();
 251:Core/Src/tim.c ****   }
 252:Core/Src/tim.c ****   sConfigOC.OCMode = TIM_OCMODE_PWM1;
 253:Core/Src/tim.c ****   sConfigOC.Pulse = 0;
 254:Core/Src/tim.c ****   sConfigOC.OCPolarity = TIM_OCPOLARITY_HIGH;
 255:Core/Src/tim.c ****   sConfigOC.OCNPolarity = TIM_OCNPOLARITY_HIGH;
 256:Core/Src/tim.c ****   sConfigOC.OCFastMode = TIM_OCFAST_DISABLE;
 257:Core/Src/tim.c ****   sConfigOC.OCIdleState = TIM_OCIDLESTATE_RESET;
 258:Core/Src/tim.c ****   sConfigOC.OCNIdleState = TIM_OCNIDLESTATE_RESET;
 259:Core/Src/tim.c ****   if (HAL_TIM_PWM_ConfigChannel(&htim8, &sConfigOC, TIM_CHANNEL_1) != HAL_OK)
 260:Core/Src/tim.c ****   {
 261:Core/Src/tim.c ****     Error_Handler();
 262:Core/Src/tim.c ****   }
 263:Core/Src/tim.c ****   if (HAL_TIM_PWM_ConfigChannel(&htim8, &sConfigOC, TIM_CHANNEL_2) != HAL_OK)
 264:Core/Src/tim.c ****   {
 265:Core/Src/tim.c ****     Error_Handler();
 266:Core/Src/tim.c ****   }
 267:Core/Src/tim.c ****   if (HAL_TIM_PWM_ConfigChannel(&htim8, &sConfigOC, TIM_CHANNEL_3) != HAL_OK)
 268:Core/Src/tim.c ****   {
 269:Core/Src/tim.c ****     Error_Handler();
 270:Core/Src/tim.c ****   }
 271:Core/Src/tim.c ****   if (HAL_TIM_PWM_ConfigChannel(&htim8, &sConfigOC, TIM_CHANNEL_4) != HAL_OK)
 272:Core/Src/tim.c ****   {
 273:Core/Src/tim.c ****     Error_Handler();
ARM GAS  C:\Users\Lenovo\AppData\Local\Temp\cc08QWbk.s 			page 15


 274:Core/Src/tim.c ****   }
 275:Core/Src/tim.c ****   sBreakDeadTimeConfig.OffStateRunMode = TIM_OSSR_DISABLE;
 276:Core/Src/tim.c ****   sBreakDeadTimeConfig.OffStateIDLEMode = TIM_OSSI_DISABLE;
 277:Core/Src/tim.c ****   sBreakDeadTimeConfig.LockLevel = TIM_LOCKLEVEL_OFF;
 278:Core/Src/tim.c ****   sBreakDeadTimeConfig.DeadTime = 0;
 279:Core/Src/tim.c ****   sBreakDeadTimeConfig.BreakState = TIM_BREAK_DISABLE;
 280:Core/Src/tim.c ****   sBreakDeadTimeConfig.BreakPolarity = TIM_BREAKPOLARITY_HIGH;
 281:Core/Src/tim.c ****   sBreakDeadTimeConfig.AutomaticOutput = TIM_AUTOMATICOUTPUT_DISABLE;
 282:Core/Src/tim.c ****   if (HAL_TIMEx_ConfigBreakDeadTime(&htim8, &sBreakDeadTimeConfig) != HAL_OK)
 283:Core/Src/tim.c ****   {
 284:Core/Src/tim.c ****     Error_Handler();
 285:Core/Src/tim.c ****   }
 286:Core/Src/tim.c ****   /* USER CODE BEGIN TIM8_Init 2 */
 287:Core/Src/tim.c **** 
 288:Core/Src/tim.c ****   /* USER CODE END TIM8_Init 2 */
 289:Core/Src/tim.c ****   HAL_TIM_MspPostInit(&htim8);
 290:Core/Src/tim.c **** 
 291:Core/Src/tim.c **** }
 292:Core/Src/tim.c **** 
 293:Core/Src/tim.c **** void HAL_TIM_Encoder_MspInit(TIM_HandleTypeDef* tim_encoderHandle)
 294:Core/Src/tim.c **** {
 527              		.loc 1 294 1 is_stmt 1 view -0
 528              		.cfi_startproc
 529              		@ args = 0, pretend = 0, frame = 48
 530              		@ frame_needed = 0, uses_anonymous_args = 0
 531              		.loc 1 294 1 is_stmt 0 view .LVU175
 532 0000 00B5     		push	{lr}
 533              	.LCFI16:
 534              		.cfi_def_cfa_offset 4
 535              		.cfi_offset 14, -4
 536 0002 8DB0     		sub	sp, sp, #52
 537              	.LCFI17:
 538              		.cfi_def_cfa_offset 56
 295:Core/Src/tim.c **** 
 296:Core/Src/tim.c ****   GPIO_InitTypeDef GPIO_InitStruct = {0};
 539              		.loc 1 296 3 is_stmt 1 view .LVU176
 540              		.loc 1 296 20 is_stmt 0 view .LVU177
 541 0004 0023     		movs	r3, #0
 542 0006 0893     		str	r3, [sp, #32]
 543 0008 0993     		str	r3, [sp, #36]
 544 000a 0A93     		str	r3, [sp, #40]
 545 000c 0B93     		str	r3, [sp, #44]
 297:Core/Src/tim.c ****   if(tim_encoderHandle->Instance==TIM1)
 546              		.loc 1 297 3 is_stmt 1 view .LVU178
 547              		.loc 1 297 23 is_stmt 0 view .LVU179
 548 000e 0368     		ldr	r3, [r0]
 549              		.loc 1 297 5 view .LVU180
 550 0010 434A     		ldr	r2, .L43
 551 0012 9342     		cmp	r3, r2
 552 0014 0BD0     		beq	.L39
 298:Core/Src/tim.c ****   {
 299:Core/Src/tim.c ****   /* USER CODE BEGIN TIM1_MspInit 0 */
 300:Core/Src/tim.c **** 
 301:Core/Src/tim.c ****   /* USER CODE END TIM1_MspInit 0 */
 302:Core/Src/tim.c ****     /* TIM1 clock enable */
 303:Core/Src/tim.c ****     __HAL_RCC_TIM1_CLK_ENABLE();
 304:Core/Src/tim.c **** 
ARM GAS  C:\Users\Lenovo\AppData\Local\Temp\cc08QWbk.s 			page 16


 305:Core/Src/tim.c ****     __HAL_RCC_GPIOE_CLK_ENABLE();
 306:Core/Src/tim.c ****     /**TIM1 GPIO Configuration
 307:Core/Src/tim.c ****     PE9     ------> TIM1_CH1
 308:Core/Src/tim.c ****     PE11     ------> TIM1_CH2
 309:Core/Src/tim.c ****     */
 310:Core/Src/tim.c ****     GPIO_InitStruct.Pin = GPIO_PIN_9|GPIO_PIN_11;
 311:Core/Src/tim.c ****     GPIO_InitStruct.Mode = GPIO_MODE_INPUT;
 312:Core/Src/tim.c ****     GPIO_InitStruct.Pull = GPIO_NOPULL;
 313:Core/Src/tim.c ****     HAL_GPIO_Init(GPIOE, &GPIO_InitStruct);
 314:Core/Src/tim.c **** 
 315:Core/Src/tim.c ****     __HAL_AFIO_REMAP_TIM1_ENABLE();
 316:Core/Src/tim.c **** 
 317:Core/Src/tim.c ****   /* USER CODE BEGIN TIM1_MspInit 1 */
 318:Core/Src/tim.c **** 
 319:Core/Src/tim.c ****   /* USER CODE END TIM1_MspInit 1 */
 320:Core/Src/tim.c ****   }
 321:Core/Src/tim.c ****   else if(tim_encoderHandle->Instance==TIM3)
 553              		.loc 1 321 8 is_stmt 1 view .LVU181
 554              		.loc 1 321 10 is_stmt 0 view .LVU182
 555 0016 434A     		ldr	r2, .L43+4
 556 0018 9342     		cmp	r3, r2
 557 001a 2AD0     		beq	.L40
 322:Core/Src/tim.c ****   {
 323:Core/Src/tim.c ****   /* USER CODE BEGIN TIM3_MspInit 0 */
 324:Core/Src/tim.c **** 
 325:Core/Src/tim.c ****   /* USER CODE END TIM3_MspInit 0 */
 326:Core/Src/tim.c ****     /* TIM3 clock enable */
 327:Core/Src/tim.c ****     __HAL_RCC_TIM3_CLK_ENABLE();
 328:Core/Src/tim.c **** 
 329:Core/Src/tim.c ****     __HAL_RCC_GPIOA_CLK_ENABLE();
 330:Core/Src/tim.c ****     /**TIM3 GPIO Configuration
 331:Core/Src/tim.c ****     PA6     ------> TIM3_CH1
 332:Core/Src/tim.c ****     PA7     ------> TIM3_CH2
 333:Core/Src/tim.c ****     */
 334:Core/Src/tim.c ****     GPIO_InitStruct.Pin = GPIO_PIN_6|GPIO_PIN_7;
 335:Core/Src/tim.c ****     GPIO_InitStruct.Mode = GPIO_MODE_INPUT;
 336:Core/Src/tim.c ****     GPIO_InitStruct.Pull = GPIO_NOPULL;
 337:Core/Src/tim.c ****     HAL_GPIO_Init(GPIOA, &GPIO_InitStruct);
 338:Core/Src/tim.c **** 
 339:Core/Src/tim.c ****   /* USER CODE BEGIN TIM3_MspInit 1 */
 340:Core/Src/tim.c **** 
 341:Core/Src/tim.c ****   /* USER CODE END TIM3_MspInit 1 */
 342:Core/Src/tim.c ****   }
 343:Core/Src/tim.c ****   else if(tim_encoderHandle->Instance==TIM4)
 558              		.loc 1 343 8 is_stmt 1 view .LVU183
 559              		.loc 1 343 10 is_stmt 0 view .LVU184
 560 001c 424A     		ldr	r2, .L43+8
 561 001e 9342     		cmp	r3, r2
 562 0020 41D0     		beq	.L41
 344:Core/Src/tim.c ****   {
 345:Core/Src/tim.c ****   /* USER CODE BEGIN TIM4_MspInit 0 */
 346:Core/Src/tim.c **** 
 347:Core/Src/tim.c ****   /* USER CODE END TIM4_MspInit 0 */
 348:Core/Src/tim.c ****     /* TIM4 clock enable */
 349:Core/Src/tim.c ****     __HAL_RCC_TIM4_CLK_ENABLE();
 350:Core/Src/tim.c **** 
 351:Core/Src/tim.c ****     __HAL_RCC_GPIOD_CLK_ENABLE();
ARM GAS  C:\Users\Lenovo\AppData\Local\Temp\cc08QWbk.s 			page 17


 352:Core/Src/tim.c ****     /**TIM4 GPIO Configuration
 353:Core/Src/tim.c ****     PD12     ------> TIM4_CH1
 354:Core/Src/tim.c ****     PD13     ------> TIM4_CH2
 355:Core/Src/tim.c ****     */
 356:Core/Src/tim.c ****     GPIO_InitStruct.Pin = GPIO_PIN_12|GPIO_PIN_13;
 357:Core/Src/tim.c ****     GPIO_InitStruct.Mode = GPIO_MODE_INPUT;
 358:Core/Src/tim.c ****     GPIO_InitStruct.Pull = GPIO_NOPULL;
 359:Core/Src/tim.c ****     HAL_GPIO_Init(GPIOD, &GPIO_InitStruct);
 360:Core/Src/tim.c **** 
 361:Core/Src/tim.c ****     __HAL_AFIO_REMAP_TIM4_ENABLE();
 362:Core/Src/tim.c **** 
 363:Core/Src/tim.c ****   /* USER CODE BEGIN TIM4_MspInit 1 */
 364:Core/Src/tim.c **** 
 365:Core/Src/tim.c ****   /* USER CODE END TIM4_MspInit 1 */
 366:Core/Src/tim.c ****   }
 367:Core/Src/tim.c ****   else if(tim_encoderHandle->Instance==TIM5)
 563              		.loc 1 367 8 is_stmt 1 view .LVU185
 564              		.loc 1 367 10 is_stmt 0 view .LVU186
 565 0022 424A     		ldr	r2, .L43+12
 566 0024 9342     		cmp	r3, r2
 567 0026 60D0     		beq	.L42
 568              	.LVL21:
 569              	.L33:
 368:Core/Src/tim.c ****   {
 369:Core/Src/tim.c ****   /* USER CODE BEGIN TIM5_MspInit 0 */
 370:Core/Src/tim.c **** 
 371:Core/Src/tim.c ****   /* USER CODE END TIM5_MspInit 0 */
 372:Core/Src/tim.c ****     /* TIM5 clock enable */
 373:Core/Src/tim.c ****     __HAL_RCC_TIM5_CLK_ENABLE();
 374:Core/Src/tim.c **** 
 375:Core/Src/tim.c ****     __HAL_RCC_GPIOA_CLK_ENABLE();
 376:Core/Src/tim.c ****     /**TIM5 GPIO Configuration
 377:Core/Src/tim.c ****     PA0-WKUP     ------> TIM5_CH1
 378:Core/Src/tim.c ****     PA1     ------> TIM5_CH2
 379:Core/Src/tim.c ****     */
 380:Core/Src/tim.c ****     GPIO_InitStruct.Pin = GPIO_PIN_0|GPIO_PIN_1;
 381:Core/Src/tim.c ****     GPIO_InitStruct.Mode = GPIO_MODE_INPUT;
 382:Core/Src/tim.c ****     GPIO_InitStruct.Pull = GPIO_NOPULL;
 383:Core/Src/tim.c ****     HAL_GPIO_Init(GPIOA, &GPIO_InitStruct);
 384:Core/Src/tim.c **** 
 385:Core/Src/tim.c ****   /* USER CODE BEGIN TIM5_MspInit 1 */
 386:Core/Src/tim.c **** 
 387:Core/Src/tim.c ****   /* USER CODE END TIM5_MspInit 1 */
 388:Core/Src/tim.c ****   }
 389:Core/Src/tim.c **** }
 570              		.loc 1 389 1 view .LVU187
 571 0028 0DB0     		add	sp, sp, #52
 572              	.LCFI18:
 573              		.cfi_remember_state
 574              		.cfi_def_cfa_offset 4
 575              		@ sp needed
 576 002a 5DF804FB 		ldr	pc, [sp], #4
 577              	.LVL22:
 578              	.L39:
 579              	.LCFI19:
 580              		.cfi_restore_state
 303:Core/Src/tim.c **** 
ARM GAS  C:\Users\Lenovo\AppData\Local\Temp\cc08QWbk.s 			page 18


 581              		.loc 1 303 5 is_stmt 1 view .LVU188
 582              	.LBB2:
 303:Core/Src/tim.c **** 
 583              		.loc 1 303 5 view .LVU189
 303:Core/Src/tim.c **** 
 584              		.loc 1 303 5 view .LVU190
 585 002e 404B     		ldr	r3, .L43+16
 586 0030 9A69     		ldr	r2, [r3, #24]
 587 0032 42F40062 		orr	r2, r2, #2048
 588 0036 9A61     		str	r2, [r3, #24]
 303:Core/Src/tim.c **** 
 589              		.loc 1 303 5 view .LVU191
 590 0038 9A69     		ldr	r2, [r3, #24]
 591 003a 02F40062 		and	r2, r2, #2048
 592 003e 0092     		str	r2, [sp]
 303:Core/Src/tim.c **** 
 593              		.loc 1 303 5 view .LVU192
 594 0040 009A     		ldr	r2, [sp]
 595              	.LBE2:
 303:Core/Src/tim.c **** 
 596              		.loc 1 303 5 view .LVU193
 305:Core/Src/tim.c ****     /**TIM1 GPIO Configuration
 597              		.loc 1 305 5 view .LVU194
 598              	.LBB3:
 305:Core/Src/tim.c ****     /**TIM1 GPIO Configuration
 599              		.loc 1 305 5 view .LVU195
 305:Core/Src/tim.c ****     /**TIM1 GPIO Configuration
 600              		.loc 1 305 5 view .LVU196
 601 0042 9A69     		ldr	r2, [r3, #24]
 602 0044 42F04002 		orr	r2, r2, #64
 603 0048 9A61     		str	r2, [r3, #24]
 305:Core/Src/tim.c ****     /**TIM1 GPIO Configuration
 604              		.loc 1 305 5 view .LVU197
 605 004a 9B69     		ldr	r3, [r3, #24]
 606 004c 03F04003 		and	r3, r3, #64
 607 0050 0193     		str	r3, [sp, #4]
 305:Core/Src/tim.c ****     /**TIM1 GPIO Configuration
 608              		.loc 1 305 5 view .LVU198
 609 0052 019B     		ldr	r3, [sp, #4]
 610              	.LBE3:
 305:Core/Src/tim.c ****     /**TIM1 GPIO Configuration
 611              		.loc 1 305 5 view .LVU199
 310:Core/Src/tim.c ****     GPIO_InitStruct.Mode = GPIO_MODE_INPUT;
 612              		.loc 1 310 5 view .LVU200
 310:Core/Src/tim.c ****     GPIO_InitStruct.Mode = GPIO_MODE_INPUT;
 613              		.loc 1 310 25 is_stmt 0 view .LVU201
 614 0054 4FF42063 		mov	r3, #2560
 615 0058 0893     		str	r3, [sp, #32]
 311:Core/Src/tim.c ****     GPIO_InitStruct.Pull = GPIO_NOPULL;
 616              		.loc 1 311 5 is_stmt 1 view .LVU202
 312:Core/Src/tim.c ****     HAL_GPIO_Init(GPIOE, &GPIO_InitStruct);
 617              		.loc 1 312 5 view .LVU203
 313:Core/Src/tim.c **** 
 618              		.loc 1 313 5 view .LVU204
 619 005a 08A9     		add	r1, sp, #32
 620 005c 3548     		ldr	r0, .L43+20
 621              	.LVL23:
ARM GAS  C:\Users\Lenovo\AppData\Local\Temp\cc08QWbk.s 			page 19


 313:Core/Src/tim.c **** 
 622              		.loc 1 313 5 is_stmt 0 view .LVU205
 623 005e FFF7FEFF 		bl	HAL_GPIO_Init
 624              	.LVL24:
 315:Core/Src/tim.c **** 
 625              		.loc 1 315 5 is_stmt 1 view .LVU206
 626              	.LBB4:
 315:Core/Src/tim.c **** 
 627              		.loc 1 315 5 view .LVU207
 628 0062 354A     		ldr	r2, .L43+24
 629 0064 5368     		ldr	r3, [r2, #4]
 630              	.LVL25:
 315:Core/Src/tim.c **** 
 631              		.loc 1 315 5 view .LVU208
 315:Core/Src/tim.c **** 
 632              		.loc 1 315 5 view .LVU209
 315:Core/Src/tim.c **** 
 633              		.loc 1 315 5 view .LVU210
 634 0066 43F0E063 		orr	r3, r3, #117440512
 635              	.LVL26:
 315:Core/Src/tim.c **** 
 636              		.loc 1 315 5 is_stmt 0 view .LVU211
 637 006a 43F0C003 		orr	r3, r3, #192
 638              	.LVL27:
 315:Core/Src/tim.c **** 
 639              		.loc 1 315 5 is_stmt 1 view .LVU212
 640 006e 5360     		str	r3, [r2, #4]
 641              	.LBE4:
 315:Core/Src/tim.c **** 
 642              		.loc 1 315 5 view .LVU213
 643 0070 DAE7     		b	.L33
 644              	.LVL28:
 645              	.L40:
 327:Core/Src/tim.c **** 
 646              		.loc 1 327 5 view .LVU214
 647              	.LBB5:
 327:Core/Src/tim.c **** 
 648              		.loc 1 327 5 view .LVU215
 327:Core/Src/tim.c **** 
 649              		.loc 1 327 5 view .LVU216
 650 0072 2F4B     		ldr	r3, .L43+16
 651 0074 DA69     		ldr	r2, [r3, #28]
 652 0076 42F00202 		orr	r2, r2, #2
 653 007a DA61     		str	r2, [r3, #28]
 327:Core/Src/tim.c **** 
 654              		.loc 1 327 5 view .LVU217
 655 007c DA69     		ldr	r2, [r3, #28]
 656 007e 02F00202 		and	r2, r2, #2
 657 0082 0292     		str	r2, [sp, #8]
 327:Core/Src/tim.c **** 
 658              		.loc 1 327 5 view .LVU218
 659 0084 029A     		ldr	r2, [sp, #8]
 660              	.LBE5:
 327:Core/Src/tim.c **** 
 661              		.loc 1 327 5 view .LVU219
 329:Core/Src/tim.c ****     /**TIM3 GPIO Configuration
 662              		.loc 1 329 5 view .LVU220
ARM GAS  C:\Users\Lenovo\AppData\Local\Temp\cc08QWbk.s 			page 20


 663              	.LBB6:
 329:Core/Src/tim.c ****     /**TIM3 GPIO Configuration
 664              		.loc 1 329 5 view .LVU221
 329:Core/Src/tim.c ****     /**TIM3 GPIO Configuration
 665              		.loc 1 329 5 view .LVU222
 666 0086 9A69     		ldr	r2, [r3, #24]
 667 0088 42F00402 		orr	r2, r2, #4
 668 008c 9A61     		str	r2, [r3, #24]
 329:Core/Src/tim.c ****     /**TIM3 GPIO Configuration
 669              		.loc 1 329 5 view .LVU223
 670 008e 9B69     		ldr	r3, [r3, #24]
 671 0090 03F00403 		and	r3, r3, #4
 672 0094 0393     		str	r3, [sp, #12]
 329:Core/Src/tim.c ****     /**TIM3 GPIO Configuration
 673              		.loc 1 329 5 view .LVU224
 674 0096 039B     		ldr	r3, [sp, #12]
 675              	.LBE6:
 329:Core/Src/tim.c ****     /**TIM3 GPIO Configuration
 676              		.loc 1 329 5 view .LVU225
 334:Core/Src/tim.c ****     GPIO_InitStruct.Mode = GPIO_MODE_INPUT;
 677              		.loc 1 334 5 view .LVU226
 334:Core/Src/tim.c ****     GPIO_InitStruct.Mode = GPIO_MODE_INPUT;
 678              		.loc 1 334 25 is_stmt 0 view .LVU227
 679 0098 C023     		movs	r3, #192
 680 009a 0893     		str	r3, [sp, #32]
 335:Core/Src/tim.c ****     GPIO_InitStruct.Pull = GPIO_NOPULL;
 681              		.loc 1 335 5 is_stmt 1 view .LVU228
 336:Core/Src/tim.c ****     HAL_GPIO_Init(GPIOA, &GPIO_InitStruct);
 682              		.loc 1 336 5 view .LVU229
 337:Core/Src/tim.c **** 
 683              		.loc 1 337 5 view .LVU230
 684 009c 08A9     		add	r1, sp, #32
 685 009e 2748     		ldr	r0, .L43+28
 686              	.LVL29:
 337:Core/Src/tim.c **** 
 687              		.loc 1 337 5 is_stmt 0 view .LVU231
 688 00a0 FFF7FEFF 		bl	HAL_GPIO_Init
 689              	.LVL30:
 690 00a4 C0E7     		b	.L33
 691              	.LVL31:
 692              	.L41:
 349:Core/Src/tim.c **** 
 693              		.loc 1 349 5 is_stmt 1 view .LVU232
 694              	.LBB7:
 349:Core/Src/tim.c **** 
 695              		.loc 1 349 5 view .LVU233
 349:Core/Src/tim.c **** 
 696              		.loc 1 349 5 view .LVU234
 697 00a6 224B     		ldr	r3, .L43+16
 698 00a8 DA69     		ldr	r2, [r3, #28]
 699 00aa 42F00402 		orr	r2, r2, #4
 700 00ae DA61     		str	r2, [r3, #28]
 349:Core/Src/tim.c **** 
 701              		.loc 1 349 5 view .LVU235
 702 00b0 DA69     		ldr	r2, [r3, #28]
 703 00b2 02F00402 		and	r2, r2, #4
 704 00b6 0492     		str	r2, [sp, #16]
ARM GAS  C:\Users\Lenovo\AppData\Local\Temp\cc08QWbk.s 			page 21


 349:Core/Src/tim.c **** 
 705              		.loc 1 349 5 view .LVU236
 706 00b8 049A     		ldr	r2, [sp, #16]
 707              	.LBE7:
 349:Core/Src/tim.c **** 
 708              		.loc 1 349 5 view .LVU237
 351:Core/Src/tim.c ****     /**TIM4 GPIO Configuration
 709              		.loc 1 351 5 view .LVU238
 710              	.LBB8:
 351:Core/Src/tim.c ****     /**TIM4 GPIO Configuration
 711              		.loc 1 351 5 view .LVU239
 351:Core/Src/tim.c ****     /**TIM4 GPIO Configuration
 712              		.loc 1 351 5 view .LVU240
 713 00ba 9A69     		ldr	r2, [r3, #24]
 714 00bc 42F02002 		orr	r2, r2, #32
 715 00c0 9A61     		str	r2, [r3, #24]
 351:Core/Src/tim.c ****     /**TIM4 GPIO Configuration
 716              		.loc 1 351 5 view .LVU241
 717 00c2 9B69     		ldr	r3, [r3, #24]
 718 00c4 03F02003 		and	r3, r3, #32
 719 00c8 0593     		str	r3, [sp, #20]
 351:Core/Src/tim.c ****     /**TIM4 GPIO Configuration
 720              		.loc 1 351 5 view .LVU242
 721 00ca 059B     		ldr	r3, [sp, #20]
 722              	.LBE8:
 351:Core/Src/tim.c ****     /**TIM4 GPIO Configuration
 723              		.loc 1 351 5 view .LVU243
 356:Core/Src/tim.c ****     GPIO_InitStruct.Mode = GPIO_MODE_INPUT;
 724              		.loc 1 356 5 view .LVU244
 356:Core/Src/tim.c ****     GPIO_InitStruct.Mode = GPIO_MODE_INPUT;
 725              		.loc 1 356 25 is_stmt 0 view .LVU245
 726 00cc 4FF44053 		mov	r3, #12288
 727 00d0 0893     		str	r3, [sp, #32]
 357:Core/Src/tim.c ****     GPIO_InitStruct.Pull = GPIO_NOPULL;
 728              		.loc 1 357 5 is_stmt 1 view .LVU246
 358:Core/Src/tim.c ****     HAL_GPIO_Init(GPIOD, &GPIO_InitStruct);
 729              		.loc 1 358 5 view .LVU247
 359:Core/Src/tim.c **** 
 730              		.loc 1 359 5 view .LVU248
 731 00d2 08A9     		add	r1, sp, #32
 732 00d4 1A48     		ldr	r0, .L43+32
 733              	.LVL32:
 359:Core/Src/tim.c **** 
 734              		.loc 1 359 5 is_stmt 0 view .LVU249
 735 00d6 FFF7FEFF 		bl	HAL_GPIO_Init
 736              	.LVL33:
 361:Core/Src/tim.c **** 
 737              		.loc 1 361 5 is_stmt 1 view .LVU250
 738              	.LBB9:
 361:Core/Src/tim.c **** 
 739              		.loc 1 361 5 view .LVU251
 740 00da 174A     		ldr	r2, .L43+24
 741 00dc 5368     		ldr	r3, [r2, #4]
 742              	.LVL34:
 361:Core/Src/tim.c **** 
 743              		.loc 1 361 5 view .LVU252
 361:Core/Src/tim.c **** 
ARM GAS  C:\Users\Lenovo\AppData\Local\Temp\cc08QWbk.s 			page 22


 744              		.loc 1 361 5 view .LVU253
 745 00de 43F0E063 		orr	r3, r3, #117440512
 746              	.LVL35:
 361:Core/Src/tim.c **** 
 747              		.loc 1 361 5 is_stmt 0 view .LVU254
 748 00e2 43F48053 		orr	r3, r3, #4096
 749              	.LVL36:
 361:Core/Src/tim.c **** 
 750              		.loc 1 361 5 is_stmt 1 view .LVU255
 751 00e6 5360     		str	r3, [r2, #4]
 752              	.LBE9:
 361:Core/Src/tim.c **** 
 753              		.loc 1 361 5 view .LVU256
 754 00e8 9EE7     		b	.L33
 755              	.LVL37:
 756              	.L42:
 373:Core/Src/tim.c **** 
 757              		.loc 1 373 5 view .LVU257
 758              	.LBB10:
 373:Core/Src/tim.c **** 
 759              		.loc 1 373 5 view .LVU258
 373:Core/Src/tim.c **** 
 760              		.loc 1 373 5 view .LVU259
 761 00ea 114B     		ldr	r3, .L43+16
 762 00ec DA69     		ldr	r2, [r3, #28]
 763 00ee 42F00802 		orr	r2, r2, #8
 764 00f2 DA61     		str	r2, [r3, #28]
 373:Core/Src/tim.c **** 
 765              		.loc 1 373 5 view .LVU260
 766 00f4 DA69     		ldr	r2, [r3, #28]
 767 00f6 02F00802 		and	r2, r2, #8
 768 00fa 0692     		str	r2, [sp, #24]
 373:Core/Src/tim.c **** 
 769              		.loc 1 373 5 view .LVU261
 770 00fc 069A     		ldr	r2, [sp, #24]
 771              	.LBE10:
 373:Core/Src/tim.c **** 
 772              		.loc 1 373 5 view .LVU262
 375:Core/Src/tim.c ****     /**TIM5 GPIO Configuration
 773              		.loc 1 375 5 view .LVU263
 774              	.LBB11:
 375:Core/Src/tim.c ****     /**TIM5 GPIO Configuration
 775              		.loc 1 375 5 view .LVU264
 375:Core/Src/tim.c ****     /**TIM5 GPIO Configuration
 776              		.loc 1 375 5 view .LVU265
 777 00fe 9A69     		ldr	r2, [r3, #24]
 778 0100 42F00402 		orr	r2, r2, #4
 779 0104 9A61     		str	r2, [r3, #24]
 375:Core/Src/tim.c ****     /**TIM5 GPIO Configuration
 780              		.loc 1 375 5 view .LVU266
 781 0106 9B69     		ldr	r3, [r3, #24]
 782 0108 03F00403 		and	r3, r3, #4
 783 010c 0793     		str	r3, [sp, #28]
 375:Core/Src/tim.c ****     /**TIM5 GPIO Configuration
 784              		.loc 1 375 5 view .LVU267
 785 010e 079B     		ldr	r3, [sp, #28]
 786              	.LBE11:
ARM GAS  C:\Users\Lenovo\AppData\Local\Temp\cc08QWbk.s 			page 23


 375:Core/Src/tim.c ****     /**TIM5 GPIO Configuration
 787              		.loc 1 375 5 view .LVU268
 380:Core/Src/tim.c ****     GPIO_InitStruct.Mode = GPIO_MODE_INPUT;
 788              		.loc 1 380 5 view .LVU269
 380:Core/Src/tim.c ****     GPIO_InitStruct.Mode = GPIO_MODE_INPUT;
 789              		.loc 1 380 25 is_stmt 0 view .LVU270
 790 0110 0323     		movs	r3, #3
 791 0112 0893     		str	r3, [sp, #32]
 381:Core/Src/tim.c ****     GPIO_InitStruct.Pull = GPIO_NOPULL;
 792              		.loc 1 381 5 is_stmt 1 view .LVU271
 382:Core/Src/tim.c ****     HAL_GPIO_Init(GPIOA, &GPIO_InitStruct);
 793              		.loc 1 382 5 view .LVU272
 383:Core/Src/tim.c **** 
 794              		.loc 1 383 5 view .LVU273
 795 0114 08A9     		add	r1, sp, #32
 796 0116 0948     		ldr	r0, .L43+28
 797              	.LVL38:
 383:Core/Src/tim.c **** 
 798              		.loc 1 383 5 is_stmt 0 view .LVU274
 799 0118 FFF7FEFF 		bl	HAL_GPIO_Init
 800              	.LVL39:
 801              		.loc 1 389 1 view .LVU275
 802 011c 84E7     		b	.L33
 803              	.L44:
 804 011e 00BF     		.align	2
 805              	.L43:
 806 0120 002C0140 		.word	1073818624
 807 0124 00040040 		.word	1073742848
 808 0128 00080040 		.word	1073743872
 809 012c 000C0040 		.word	1073744896
 810 0130 00100240 		.word	1073876992
 811 0134 00180140 		.word	1073813504
 812 0138 00000140 		.word	1073807360
 813 013c 00080140 		.word	1073809408
 814 0140 00140140 		.word	1073812480
 815              		.cfi_endproc
 816              	.LFE70:
 818              		.section	.text.HAL_TIM_Base_MspInit,"ax",%progbits
 819              		.align	1
 820              		.global	HAL_TIM_Base_MspInit
 821              		.syntax unified
 822              		.thumb
 823              		.thumb_func
 825              	HAL_TIM_Base_MspInit:
 826              	.LVL40:
 827              	.LFB71:
 390:Core/Src/tim.c **** 
 391:Core/Src/tim.c **** void HAL_TIM_Base_MspInit(TIM_HandleTypeDef* tim_baseHandle)
 392:Core/Src/tim.c **** {
 828              		.loc 1 392 1 is_stmt 1 view -0
 829              		.cfi_startproc
 830              		@ args = 0, pretend = 0, frame = 8
 831              		@ frame_needed = 0, uses_anonymous_args = 0
 832              		@ link register save eliminated.
 393:Core/Src/tim.c **** 
 394:Core/Src/tim.c ****   if(tim_baseHandle->Instance==TIM8)
 833              		.loc 1 394 3 view .LVU277
ARM GAS  C:\Users\Lenovo\AppData\Local\Temp\cc08QWbk.s 			page 24


 834              		.loc 1 394 20 is_stmt 0 view .LVU278
 835 0000 0268     		ldr	r2, [r0]
 836              		.loc 1 394 5 view .LVU279
 837 0002 094B     		ldr	r3, .L52
 838 0004 9A42     		cmp	r2, r3
 839 0006 00D0     		beq	.L51
 840 0008 7047     		bx	lr
 841              	.L51:
 392:Core/Src/tim.c **** 
 842              		.loc 1 392 1 view .LVU280
 843 000a 82B0     		sub	sp, sp, #8
 844              	.LCFI20:
 845              		.cfi_def_cfa_offset 8
 395:Core/Src/tim.c ****   {
 396:Core/Src/tim.c ****   /* USER CODE BEGIN TIM8_MspInit 0 */
 397:Core/Src/tim.c **** 
 398:Core/Src/tim.c ****   /* USER CODE END TIM8_MspInit 0 */
 399:Core/Src/tim.c ****     /* TIM8 clock enable */
 400:Core/Src/tim.c ****     __HAL_RCC_TIM8_CLK_ENABLE();
 846              		.loc 1 400 5 is_stmt 1 view .LVU281
 847              	.LBB12:
 848              		.loc 1 400 5 view .LVU282
 849              		.loc 1 400 5 view .LVU283
 850 000c 03F55C43 		add	r3, r3, #56320
 851 0010 9A69     		ldr	r2, [r3, #24]
 852 0012 42F40052 		orr	r2, r2, #8192
 853 0016 9A61     		str	r2, [r3, #24]
 854              		.loc 1 400 5 view .LVU284
 855 0018 9B69     		ldr	r3, [r3, #24]
 856 001a 03F40053 		and	r3, r3, #8192
 857 001e 0193     		str	r3, [sp, #4]
 858              		.loc 1 400 5 view .LVU285
 859 0020 019B     		ldr	r3, [sp, #4]
 860              	.LBE12:
 861              		.loc 1 400 5 discriminator 1 view .LVU286
 401:Core/Src/tim.c ****   /* USER CODE BEGIN TIM8_MspInit 1 */
 402:Core/Src/tim.c **** 
 403:Core/Src/tim.c ****   /* USER CODE END TIM8_MspInit 1 */
 404:Core/Src/tim.c ****   }
 405:Core/Src/tim.c **** }
 862              		.loc 1 405 1 is_stmt 0 view .LVU287
 863 0022 02B0     		add	sp, sp, #8
 864              	.LCFI21:
 865              		.cfi_def_cfa_offset 0
 866              		@ sp needed
 867 0024 7047     		bx	lr
 868              	.L53:
 869 0026 00BF     		.align	2
 870              	.L52:
 871 0028 00340140 		.word	1073820672
 872              		.cfi_endproc
 873              	.LFE71:
 875              		.section	.text.HAL_TIM_MspPostInit,"ax",%progbits
 876              		.align	1
 877              		.global	HAL_TIM_MspPostInit
 878              		.syntax unified
 879              		.thumb
ARM GAS  C:\Users\Lenovo\AppData\Local\Temp\cc08QWbk.s 			page 25


 880              		.thumb_func
 882              	HAL_TIM_MspPostInit:
 883              	.LVL41:
 884              	.LFB72:
 406:Core/Src/tim.c **** void HAL_TIM_MspPostInit(TIM_HandleTypeDef* timHandle)
 407:Core/Src/tim.c **** {
 885              		.loc 1 407 1 is_stmt 1 view -0
 886              		.cfi_startproc
 887              		@ args = 0, pretend = 0, frame = 24
 888              		@ frame_needed = 0, uses_anonymous_args = 0
 889              		.loc 1 407 1 is_stmt 0 view .LVU289
 890 0000 00B5     		push	{lr}
 891              	.LCFI22:
 892              		.cfi_def_cfa_offset 4
 893              		.cfi_offset 14, -4
 894 0002 87B0     		sub	sp, sp, #28
 895              	.LCFI23:
 896              		.cfi_def_cfa_offset 32
 408:Core/Src/tim.c **** 
 409:Core/Src/tim.c ****   GPIO_InitTypeDef GPIO_InitStruct = {0};
 897              		.loc 1 409 3 is_stmt 1 view .LVU290
 898              		.loc 1 409 20 is_stmt 0 view .LVU291
 899 0004 0023     		movs	r3, #0
 900 0006 0293     		str	r3, [sp, #8]
 901 0008 0393     		str	r3, [sp, #12]
 902 000a 0493     		str	r3, [sp, #16]
 903 000c 0593     		str	r3, [sp, #20]
 410:Core/Src/tim.c ****   if(timHandle->Instance==TIM8)
 904              		.loc 1 410 3 is_stmt 1 view .LVU292
 905              		.loc 1 410 15 is_stmt 0 view .LVU293
 906 000e 0268     		ldr	r2, [r0]
 907              		.loc 1 410 5 view .LVU294
 908 0010 0D4B     		ldr	r3, .L58
 909 0012 9A42     		cmp	r2, r3
 910 0014 02D0     		beq	.L57
 911              	.LVL42:
 912              	.L54:
 411:Core/Src/tim.c ****   {
 412:Core/Src/tim.c ****   /* USER CODE BEGIN TIM8_MspPostInit 0 */
 413:Core/Src/tim.c **** 
 414:Core/Src/tim.c ****   /* USER CODE END TIM8_MspPostInit 0 */
 415:Core/Src/tim.c **** 
 416:Core/Src/tim.c ****     __HAL_RCC_GPIOC_CLK_ENABLE();
 417:Core/Src/tim.c ****     /**TIM8 GPIO Configuration
 418:Core/Src/tim.c ****     PC6     ------> TIM8_CH1
 419:Core/Src/tim.c ****     PC7     ------> TIM8_CH2
 420:Core/Src/tim.c ****     PC8     ------> TIM8_CH3
 421:Core/Src/tim.c ****     PC9     ------> TIM8_CH4
 422:Core/Src/tim.c ****     */
 423:Core/Src/tim.c ****     GPIO_InitStruct.Pin = GPIO_PIN_6|GPIO_PIN_7|GPIO_PIN_8|GPIO_PIN_9;
 424:Core/Src/tim.c ****     GPIO_InitStruct.Mode = GPIO_MODE_AF_PP;
 425:Core/Src/tim.c ****     GPIO_InitStruct.Speed = GPIO_SPEED_FREQ_LOW;
 426:Core/Src/tim.c ****     HAL_GPIO_Init(GPIOC, &GPIO_InitStruct);
 427:Core/Src/tim.c **** 
 428:Core/Src/tim.c ****   /* USER CODE BEGIN TIM8_MspPostInit 1 */
 429:Core/Src/tim.c **** 
 430:Core/Src/tim.c ****   /* USER CODE END TIM8_MspPostInit 1 */
ARM GAS  C:\Users\Lenovo\AppData\Local\Temp\cc08QWbk.s 			page 26


 431:Core/Src/tim.c ****   }
 432:Core/Src/tim.c **** 
 433:Core/Src/tim.c **** }
 913              		.loc 1 433 1 view .LVU295
 914 0016 07B0     		add	sp, sp, #28
 915              	.LCFI24:
 916              		.cfi_remember_state
 917              		.cfi_def_cfa_offset 4
 918              		@ sp needed
 919 0018 5DF804FB 		ldr	pc, [sp], #4
 920              	.LVL43:
 921              	.L57:
 922              	.LCFI25:
 923              		.cfi_restore_state
 416:Core/Src/tim.c ****     /**TIM8 GPIO Configuration
 924              		.loc 1 416 5 is_stmt 1 view .LVU296
 925              	.LBB13:
 416:Core/Src/tim.c ****     /**TIM8 GPIO Configuration
 926              		.loc 1 416 5 view .LVU297
 416:Core/Src/tim.c ****     /**TIM8 GPIO Configuration
 927              		.loc 1 416 5 view .LVU298
 928 001c 03F55C43 		add	r3, r3, #56320
 929 0020 9A69     		ldr	r2, [r3, #24]
 930 0022 42F01002 		orr	r2, r2, #16
 931 0026 9A61     		str	r2, [r3, #24]
 416:Core/Src/tim.c ****     /**TIM8 GPIO Configuration
 932              		.loc 1 416 5 view .LVU299
 933 0028 9B69     		ldr	r3, [r3, #24]
 934 002a 03F01003 		and	r3, r3, #16
 935 002e 0193     		str	r3, [sp, #4]
 416:Core/Src/tim.c ****     /**TIM8 GPIO Configuration
 936              		.loc 1 416 5 view .LVU300
 937 0030 019B     		ldr	r3, [sp, #4]
 938              	.LBE13:
 416:Core/Src/tim.c ****     /**TIM8 GPIO Configuration
 939              		.loc 1 416 5 view .LVU301
 423:Core/Src/tim.c ****     GPIO_InitStruct.Mode = GPIO_MODE_AF_PP;
 940              		.loc 1 423 5 view .LVU302
 423:Core/Src/tim.c ****     GPIO_InitStruct.Mode = GPIO_MODE_AF_PP;
 941              		.loc 1 423 25 is_stmt 0 view .LVU303
 942 0032 4FF47073 		mov	r3, #960
 943 0036 0293     		str	r3, [sp, #8]
 424:Core/Src/tim.c ****     GPIO_InitStruct.Speed = GPIO_SPEED_FREQ_LOW;
 944              		.loc 1 424 5 is_stmt 1 view .LVU304
 424:Core/Src/tim.c ****     GPIO_InitStruct.Speed = GPIO_SPEED_FREQ_LOW;
 945              		.loc 1 424 26 is_stmt 0 view .LVU305
 946 0038 0223     		movs	r3, #2
 947 003a 0393     		str	r3, [sp, #12]
 425:Core/Src/tim.c ****     HAL_GPIO_Init(GPIOC, &GPIO_InitStruct);
 948              		.loc 1 425 5 is_stmt 1 view .LVU306
 425:Core/Src/tim.c ****     HAL_GPIO_Init(GPIOC, &GPIO_InitStruct);
 949              		.loc 1 425 27 is_stmt 0 view .LVU307
 950 003c 0593     		str	r3, [sp, #20]
 426:Core/Src/tim.c **** 
 951              		.loc 1 426 5 is_stmt 1 view .LVU308
 952 003e 02A9     		add	r1, sp, #8
 953 0040 0248     		ldr	r0, .L58+4
ARM GAS  C:\Users\Lenovo\AppData\Local\Temp\cc08QWbk.s 			page 27


 954              	.LVL44:
 426:Core/Src/tim.c **** 
 955              		.loc 1 426 5 is_stmt 0 view .LVU309
 956 0042 FFF7FEFF 		bl	HAL_GPIO_Init
 957              	.LVL45:
 958              		.loc 1 433 1 view .LVU310
 959 0046 E6E7     		b	.L54
 960              	.L59:
 961              		.align	2
 962              	.L58:
 963 0048 00340140 		.word	1073820672
 964 004c 00100140 		.word	1073811456
 965              		.cfi_endproc
 966              	.LFE72:
 968              		.section	.text.MX_TIM8_Init,"ax",%progbits
 969              		.align	1
 970              		.global	MX_TIM8_Init
 971              		.syntax unified
 972              		.thumb
 973              		.thumb_func
 975              	MX_TIM8_Init:
 976              	.LFB69:
 212:Core/Src/tim.c **** 
 977              		.loc 1 212 1 is_stmt 1 view -0
 978              		.cfi_startproc
 979              		@ args = 0, pretend = 0, frame = 88
 980              		@ frame_needed = 0, uses_anonymous_args = 0
 981 0000 10B5     		push	{r4, lr}
 982              	.LCFI26:
 983              		.cfi_def_cfa_offset 8
 984              		.cfi_offset 4, -8
 985              		.cfi_offset 14, -4
 986 0002 96B0     		sub	sp, sp, #88
 987              	.LCFI27:
 988              		.cfi_def_cfa_offset 96
 218:Core/Src/tim.c ****   TIM_MasterConfigTypeDef sMasterConfig = {0};
 989              		.loc 1 218 3 view .LVU312
 218:Core/Src/tim.c ****   TIM_MasterConfigTypeDef sMasterConfig = {0};
 990              		.loc 1 218 26 is_stmt 0 view .LVU313
 991 0004 0024     		movs	r4, #0
 992 0006 1294     		str	r4, [sp, #72]
 993 0008 1394     		str	r4, [sp, #76]
 994 000a 1494     		str	r4, [sp, #80]
 995 000c 1594     		str	r4, [sp, #84]
 219:Core/Src/tim.c ****   TIM_OC_InitTypeDef sConfigOC = {0};
 996              		.loc 1 219 3 is_stmt 1 view .LVU314
 219:Core/Src/tim.c ****   TIM_OC_InitTypeDef sConfigOC = {0};
 997              		.loc 1 219 27 is_stmt 0 view .LVU315
 998 000e 1094     		str	r4, [sp, #64]
 999 0010 1194     		str	r4, [sp, #68]
 220:Core/Src/tim.c ****   TIM_BreakDeadTimeConfigTypeDef sBreakDeadTimeConfig = {0};
 1000              		.loc 1 220 3 is_stmt 1 view .LVU316
 220:Core/Src/tim.c ****   TIM_BreakDeadTimeConfigTypeDef sBreakDeadTimeConfig = {0};
 1001              		.loc 1 220 22 is_stmt 0 view .LVU317
 1002 0012 0994     		str	r4, [sp, #36]
 1003 0014 0A94     		str	r4, [sp, #40]
 1004 0016 0B94     		str	r4, [sp, #44]
ARM GAS  C:\Users\Lenovo\AppData\Local\Temp\cc08QWbk.s 			page 28


 1005 0018 0C94     		str	r4, [sp, #48]
 1006 001a 0D94     		str	r4, [sp, #52]
 1007 001c 0E94     		str	r4, [sp, #56]
 1008 001e 0F94     		str	r4, [sp, #60]
 221:Core/Src/tim.c **** 
 1009              		.loc 1 221 3 is_stmt 1 view .LVU318
 221:Core/Src/tim.c **** 
 1010              		.loc 1 221 34 is_stmt 0 view .LVU319
 1011 0020 2022     		movs	r2, #32
 1012 0022 2146     		mov	r1, r4
 1013 0024 01A8     		add	r0, sp, #4
 1014 0026 FFF7FEFF 		bl	memset
 1015              	.LVL46:
 226:Core/Src/tim.c ****   htim8.Init.Prescaler = 719;
 1016              		.loc 1 226 3 is_stmt 1 view .LVU320
 226:Core/Src/tim.c ****   htim8.Init.Prescaler = 719;
 1017              		.loc 1 226 18 is_stmt 0 view .LVU321
 1018 002a 3B48     		ldr	r0, .L80
 1019 002c 3B4B     		ldr	r3, .L80+4
 1020 002e 0360     		str	r3, [r0]
 227:Core/Src/tim.c ****   htim8.Init.CounterMode = TIM_COUNTERMODE_UP;
 1021              		.loc 1 227 3 is_stmt 1 view .LVU322
 227:Core/Src/tim.c ****   htim8.Init.CounterMode = TIM_COUNTERMODE_UP;
 1022              		.loc 1 227 24 is_stmt 0 view .LVU323
 1023 0030 40F2CF23 		movw	r3, #719
 1024 0034 4360     		str	r3, [r0, #4]
 228:Core/Src/tim.c ****   htim8.Init.Period = 99;
 1025              		.loc 1 228 3 is_stmt 1 view .LVU324
 228:Core/Src/tim.c ****   htim8.Init.Period = 99;
 1026              		.loc 1 228 26 is_stmt 0 view .LVU325
 1027 0036 8460     		str	r4, [r0, #8]
 229:Core/Src/tim.c ****   htim8.Init.ClockDivision = TIM_CLOCKDIVISION_DIV1;
 1028              		.loc 1 229 3 is_stmt 1 view .LVU326
 229:Core/Src/tim.c ****   htim8.Init.ClockDivision = TIM_CLOCKDIVISION_DIV1;
 1029              		.loc 1 229 21 is_stmt 0 view .LVU327
 1030 0038 6323     		movs	r3, #99
 1031 003a C360     		str	r3, [r0, #12]
 230:Core/Src/tim.c ****   htim8.Init.RepetitionCounter = 0;
 1032              		.loc 1 230 3 is_stmt 1 view .LVU328
 230:Core/Src/tim.c ****   htim8.Init.RepetitionCounter = 0;
 1033              		.loc 1 230 28 is_stmt 0 view .LVU329
 1034 003c 0461     		str	r4, [r0, #16]
 231:Core/Src/tim.c ****   htim8.Init.AutoReloadPreload = TIM_AUTORELOAD_PRELOAD_DISABLE;
 1035              		.loc 1 231 3 is_stmt 1 view .LVU330
 231:Core/Src/tim.c ****   htim8.Init.AutoReloadPreload = TIM_AUTORELOAD_PRELOAD_DISABLE;
 1036              		.loc 1 231 32 is_stmt 0 view .LVU331
 1037 003e 4461     		str	r4, [r0, #20]
 232:Core/Src/tim.c ****   if (HAL_TIM_Base_Init(&htim8) != HAL_OK)
 1038              		.loc 1 232 3 is_stmt 1 view .LVU332
 232:Core/Src/tim.c ****   if (HAL_TIM_Base_Init(&htim8) != HAL_OK)
 1039              		.loc 1 232 32 is_stmt 0 view .LVU333
 1040 0040 8461     		str	r4, [r0, #24]
 233:Core/Src/tim.c ****   {
 1041              		.loc 1 233 3 is_stmt 1 view .LVU334
 233:Core/Src/tim.c ****   {
 1042              		.loc 1 233 7 is_stmt 0 view .LVU335
 1043 0042 FFF7FEFF 		bl	HAL_TIM_Base_Init
ARM GAS  C:\Users\Lenovo\AppData\Local\Temp\cc08QWbk.s 			page 29


 1044              	.LVL47:
 233:Core/Src/tim.c ****   {
 1045              		.loc 1 233 6 discriminator 1 view .LVU336
 1046 0046 0028     		cmp	r0, #0
 1047 0048 4BD1     		bne	.L71
 1048              	.L61:
 237:Core/Src/tim.c ****   if (HAL_TIM_ConfigClockSource(&htim8, &sClockSourceConfig) != HAL_OK)
 1049              		.loc 1 237 3 is_stmt 1 view .LVU337
 237:Core/Src/tim.c ****   if (HAL_TIM_ConfigClockSource(&htim8, &sClockSourceConfig) != HAL_OK)
 1050              		.loc 1 237 34 is_stmt 0 view .LVU338
 1051 004a 4FF48053 		mov	r3, #4096
 1052 004e 1293     		str	r3, [sp, #72]
 238:Core/Src/tim.c ****   {
 1053              		.loc 1 238 3 is_stmt 1 view .LVU339
 238:Core/Src/tim.c ****   {
 1054              		.loc 1 238 7 is_stmt 0 view .LVU340
 1055 0050 12A9     		add	r1, sp, #72
 1056 0052 3148     		ldr	r0, .L80
 1057 0054 FFF7FEFF 		bl	HAL_TIM_ConfigClockSource
 1058              	.LVL48:
 238:Core/Src/tim.c ****   {
 1059              		.loc 1 238 6 discriminator 1 view .LVU341
 1060 0058 0028     		cmp	r0, #0
 1061 005a 45D1     		bne	.L72
 1062              	.L62:
 242:Core/Src/tim.c ****   {
 1063              		.loc 1 242 3 is_stmt 1 view .LVU342
 242:Core/Src/tim.c ****   {
 1064              		.loc 1 242 7 is_stmt 0 view .LVU343
 1065 005c 2E48     		ldr	r0, .L80
 1066 005e FFF7FEFF 		bl	HAL_TIM_PWM_Init
 1067              	.LVL49:
 242:Core/Src/tim.c ****   {
 1068              		.loc 1 242 6 discriminator 1 view .LVU344
 1069 0062 0028     		cmp	r0, #0
 1070 0064 43D1     		bne	.L73
 1071              	.L63:
 246:Core/Src/tim.c ****   sMasterConfig.MasterSlaveMode = TIM_MASTERSLAVEMODE_DISABLE;
 1072              		.loc 1 246 3 is_stmt 1 view .LVU345
 246:Core/Src/tim.c ****   sMasterConfig.MasterSlaveMode = TIM_MASTERSLAVEMODE_DISABLE;
 1073              		.loc 1 246 37 is_stmt 0 view .LVU346
 1074 0066 0023     		movs	r3, #0
 1075 0068 1093     		str	r3, [sp, #64]
 247:Core/Src/tim.c ****   if (HAL_TIMEx_MasterConfigSynchronization(&htim8, &sMasterConfig) != HAL_OK)
 1076              		.loc 1 247 3 is_stmt 1 view .LVU347
 247:Core/Src/tim.c ****   if (HAL_TIMEx_MasterConfigSynchronization(&htim8, &sMasterConfig) != HAL_OK)
 1077              		.loc 1 247 33 is_stmt 0 view .LVU348
 1078 006a 1193     		str	r3, [sp, #68]
 248:Core/Src/tim.c ****   {
 1079              		.loc 1 248 3 is_stmt 1 view .LVU349
 248:Core/Src/tim.c ****   {
 1080              		.loc 1 248 7 is_stmt 0 view .LVU350
 1081 006c 10A9     		add	r1, sp, #64
 1082 006e 2A48     		ldr	r0, .L80
 1083 0070 FFF7FEFF 		bl	HAL_TIMEx_MasterConfigSynchronization
 1084              	.LVL50:
 248:Core/Src/tim.c ****   {
ARM GAS  C:\Users\Lenovo\AppData\Local\Temp\cc08QWbk.s 			page 30


 1085              		.loc 1 248 6 discriminator 1 view .LVU351
 1086 0074 0028     		cmp	r0, #0
 1087 0076 3DD1     		bne	.L74
 1088              	.L64:
 252:Core/Src/tim.c ****   sConfigOC.Pulse = 0;
 1089              		.loc 1 252 3 is_stmt 1 view .LVU352
 252:Core/Src/tim.c ****   sConfigOC.Pulse = 0;
 1090              		.loc 1 252 20 is_stmt 0 view .LVU353
 1091 0078 6023     		movs	r3, #96
 1092 007a 0993     		str	r3, [sp, #36]
 253:Core/Src/tim.c ****   sConfigOC.OCPolarity = TIM_OCPOLARITY_HIGH;
 1093              		.loc 1 253 3 is_stmt 1 view .LVU354
 253:Core/Src/tim.c ****   sConfigOC.OCPolarity = TIM_OCPOLARITY_HIGH;
 1094              		.loc 1 253 19 is_stmt 0 view .LVU355
 1095 007c 0022     		movs	r2, #0
 1096 007e 0A92     		str	r2, [sp, #40]
 254:Core/Src/tim.c ****   sConfigOC.OCNPolarity = TIM_OCNPOLARITY_HIGH;
 1097              		.loc 1 254 3 is_stmt 1 view .LVU356
 254:Core/Src/tim.c ****   sConfigOC.OCNPolarity = TIM_OCNPOLARITY_HIGH;
 1098              		.loc 1 254 24 is_stmt 0 view .LVU357
 1099 0080 0B92     		str	r2, [sp, #44]
 255:Core/Src/tim.c ****   sConfigOC.OCFastMode = TIM_OCFAST_DISABLE;
 1100              		.loc 1 255 3 is_stmt 1 view .LVU358
 255:Core/Src/tim.c ****   sConfigOC.OCFastMode = TIM_OCFAST_DISABLE;
 1101              		.loc 1 255 25 is_stmt 0 view .LVU359
 1102 0082 0C92     		str	r2, [sp, #48]
 256:Core/Src/tim.c ****   sConfigOC.OCIdleState = TIM_OCIDLESTATE_RESET;
 1103              		.loc 1 256 3 is_stmt 1 view .LVU360
 256:Core/Src/tim.c ****   sConfigOC.OCIdleState = TIM_OCIDLESTATE_RESET;
 1104              		.loc 1 256 24 is_stmt 0 view .LVU361
 1105 0084 0D92     		str	r2, [sp, #52]
 257:Core/Src/tim.c ****   sConfigOC.OCNIdleState = TIM_OCNIDLESTATE_RESET;
 1106              		.loc 1 257 3 is_stmt 1 view .LVU362
 257:Core/Src/tim.c ****   sConfigOC.OCNIdleState = TIM_OCNIDLESTATE_RESET;
 1107              		.loc 1 257 25 is_stmt 0 view .LVU363
 1108 0086 0E92     		str	r2, [sp, #56]
 258:Core/Src/tim.c ****   if (HAL_TIM_PWM_ConfigChannel(&htim8, &sConfigOC, TIM_CHANNEL_1) != HAL_OK)
 1109              		.loc 1 258 3 is_stmt 1 view .LVU364
 258:Core/Src/tim.c ****   if (HAL_TIM_PWM_ConfigChannel(&htim8, &sConfigOC, TIM_CHANNEL_1) != HAL_OK)
 1110              		.loc 1 258 26 is_stmt 0 view .LVU365
 1111 0088 0F92     		str	r2, [sp, #60]
 259:Core/Src/tim.c ****   {
 1112              		.loc 1 259 3 is_stmt 1 view .LVU366
 259:Core/Src/tim.c ****   {
 1113              		.loc 1 259 7 is_stmt 0 view .LVU367
 1114 008a 09A9     		add	r1, sp, #36
 1115 008c 2248     		ldr	r0, .L80
 1116 008e FFF7FEFF 		bl	HAL_TIM_PWM_ConfigChannel
 1117              	.LVL51:
 259:Core/Src/tim.c ****   {
 1118              		.loc 1 259 6 discriminator 1 view .LVU368
 1119 0092 0028     		cmp	r0, #0
 1120 0094 31D1     		bne	.L75
 1121              	.L65:
 263:Core/Src/tim.c ****   {
 1122              		.loc 1 263 3 is_stmt 1 view .LVU369
 263:Core/Src/tim.c ****   {
ARM GAS  C:\Users\Lenovo\AppData\Local\Temp\cc08QWbk.s 			page 31


 1123              		.loc 1 263 7 is_stmt 0 view .LVU370
 1124 0096 0422     		movs	r2, #4
 1125 0098 09A9     		add	r1, sp, #36
 1126 009a 1F48     		ldr	r0, .L80
 1127 009c FFF7FEFF 		bl	HAL_TIM_PWM_ConfigChannel
 1128              	.LVL52:
 263:Core/Src/tim.c ****   {
 1129              		.loc 1 263 6 discriminator 1 view .LVU371
 1130 00a0 70BB     		cbnz	r0, .L76
 1131              	.L66:
 267:Core/Src/tim.c ****   {
 1132              		.loc 1 267 3 is_stmt 1 view .LVU372
 267:Core/Src/tim.c ****   {
 1133              		.loc 1 267 7 is_stmt 0 view .LVU373
 1134 00a2 0822     		movs	r2, #8
 1135 00a4 09A9     		add	r1, sp, #36
 1136 00a6 1C48     		ldr	r0, .L80
 1137 00a8 FFF7FEFF 		bl	HAL_TIM_PWM_ConfigChannel
 1138              	.LVL53:
 267:Core/Src/tim.c ****   {
 1139              		.loc 1 267 6 discriminator 1 view .LVU374
 1140 00ac 58BB     		cbnz	r0, .L77
 1141              	.L67:
 271:Core/Src/tim.c ****   {
 1142              		.loc 1 271 3 is_stmt 1 view .LVU375
 271:Core/Src/tim.c ****   {
 1143              		.loc 1 271 7 is_stmt 0 view .LVU376
 1144 00ae 0C22     		movs	r2, #12
 1145 00b0 09A9     		add	r1, sp, #36
 1146 00b2 1948     		ldr	r0, .L80
 1147 00b4 FFF7FEFF 		bl	HAL_TIM_PWM_ConfigChannel
 1148              	.LVL54:
 271:Core/Src/tim.c ****   {
 1149              		.loc 1 271 6 discriminator 1 view .LVU377
 1150 00b8 40BB     		cbnz	r0, .L78
 1151              	.L68:
 275:Core/Src/tim.c ****   sBreakDeadTimeConfig.OffStateIDLEMode = TIM_OSSI_DISABLE;
 1152              		.loc 1 275 3 is_stmt 1 view .LVU378
 275:Core/Src/tim.c ****   sBreakDeadTimeConfig.OffStateIDLEMode = TIM_OSSI_DISABLE;
 1153              		.loc 1 275 40 is_stmt 0 view .LVU379
 1154 00ba 0023     		movs	r3, #0
 1155 00bc 0193     		str	r3, [sp, #4]
 276:Core/Src/tim.c ****   sBreakDeadTimeConfig.LockLevel = TIM_LOCKLEVEL_OFF;
 1156              		.loc 1 276 3 is_stmt 1 view .LVU380
 276:Core/Src/tim.c ****   sBreakDeadTimeConfig.LockLevel = TIM_LOCKLEVEL_OFF;
 1157              		.loc 1 276 41 is_stmt 0 view .LVU381
 1158 00be 0293     		str	r3, [sp, #8]
 277:Core/Src/tim.c ****   sBreakDeadTimeConfig.DeadTime = 0;
 1159              		.loc 1 277 3 is_stmt 1 view .LVU382
 277:Core/Src/tim.c ****   sBreakDeadTimeConfig.DeadTime = 0;
 1160              		.loc 1 277 34 is_stmt 0 view .LVU383
 1161 00c0 0393     		str	r3, [sp, #12]
 278:Core/Src/tim.c ****   sBreakDeadTimeConfig.BreakState = TIM_BREAK_DISABLE;
 1162              		.loc 1 278 3 is_stmt 1 view .LVU384
 278:Core/Src/tim.c ****   sBreakDeadTimeConfig.BreakState = TIM_BREAK_DISABLE;
 1163              		.loc 1 278 33 is_stmt 0 view .LVU385
 1164 00c2 0493     		str	r3, [sp, #16]
ARM GAS  C:\Users\Lenovo\AppData\Local\Temp\cc08QWbk.s 			page 32


 279:Core/Src/tim.c ****   sBreakDeadTimeConfig.BreakPolarity = TIM_BREAKPOLARITY_HIGH;
 1165              		.loc 1 279 3 is_stmt 1 view .LVU386
 279:Core/Src/tim.c ****   sBreakDeadTimeConfig.BreakPolarity = TIM_BREAKPOLARITY_HIGH;
 1166              		.loc 1 279 35 is_stmt 0 view .LVU387
 1167 00c4 0593     		str	r3, [sp, #20]
 280:Core/Src/tim.c ****   sBreakDeadTimeConfig.AutomaticOutput = TIM_AUTOMATICOUTPUT_DISABLE;
 1168              		.loc 1 280 3 is_stmt 1 view .LVU388
 280:Core/Src/tim.c ****   sBreakDeadTimeConfig.AutomaticOutput = TIM_AUTOMATICOUTPUT_DISABLE;
 1169              		.loc 1 280 38 is_stmt 0 view .LVU389
 1170 00c6 4FF40052 		mov	r2, #8192
 1171 00ca 0692     		str	r2, [sp, #24]
 281:Core/Src/tim.c ****   if (HAL_TIMEx_ConfigBreakDeadTime(&htim8, &sBreakDeadTimeConfig) != HAL_OK)
 1172              		.loc 1 281 3 is_stmt 1 view .LVU390
 281:Core/Src/tim.c ****   if (HAL_TIMEx_ConfigBreakDeadTime(&htim8, &sBreakDeadTimeConfig) != HAL_OK)
 1173              		.loc 1 281 40 is_stmt 0 view .LVU391
 1174 00cc 0893     		str	r3, [sp, #32]
 282:Core/Src/tim.c ****   {
 1175              		.loc 1 282 3 is_stmt 1 view .LVU392
 282:Core/Src/tim.c ****   {
 1176              		.loc 1 282 7 is_stmt 0 view .LVU393
 1177 00ce 01A9     		add	r1, sp, #4
 1178 00d0 1148     		ldr	r0, .L80
 1179 00d2 FFF7FEFF 		bl	HAL_TIMEx_ConfigBreakDeadTime
 1180              	.LVL55:
 282:Core/Src/tim.c ****   {
 1181              		.loc 1 282 6 discriminator 1 view .LVU394
 1182 00d6 E0B9     		cbnz	r0, .L79
 1183              	.L69:
 289:Core/Src/tim.c **** 
 1184              		.loc 1 289 3 is_stmt 1 view .LVU395
 1185 00d8 0F48     		ldr	r0, .L80
 1186 00da FFF7FEFF 		bl	HAL_TIM_MspPostInit
 1187              	.LVL56:
 291:Core/Src/tim.c **** 
 1188              		.loc 1 291 1 is_stmt 0 view .LVU396
 1189 00de 16B0     		add	sp, sp, #88
 1190              	.LCFI28:
 1191              		.cfi_remember_state
 1192              		.cfi_def_cfa_offset 8
 1193              		@ sp needed
 1194 00e0 10BD     		pop	{r4, pc}
 1195              	.L71:
 1196              	.LCFI29:
 1197              		.cfi_restore_state
 235:Core/Src/tim.c ****   }
 1198              		.loc 1 235 5 is_stmt 1 view .LVU397
 1199 00e2 FFF7FEFF 		bl	Error_Handler
 1200              	.LVL57:
 1201 00e6 B0E7     		b	.L61
 1202              	.L72:
 240:Core/Src/tim.c ****   }
 1203              		.loc 1 240 5 view .LVU398
 1204 00e8 FFF7FEFF 		bl	Error_Handler
 1205              	.LVL58:
 1206 00ec B6E7     		b	.L62
 1207              	.L73:
 244:Core/Src/tim.c ****   }
ARM GAS  C:\Users\Lenovo\AppData\Local\Temp\cc08QWbk.s 			page 33


 1208              		.loc 1 244 5 view .LVU399
 1209 00ee FFF7FEFF 		bl	Error_Handler
 1210              	.LVL59:
 1211 00f2 B8E7     		b	.L63
 1212              	.L74:
 250:Core/Src/tim.c ****   }
 1213              		.loc 1 250 5 view .LVU400
 1214 00f4 FFF7FEFF 		bl	Error_Handler
 1215              	.LVL60:
 1216 00f8 BEE7     		b	.L64
 1217              	.L75:
 261:Core/Src/tim.c ****   }
 1218              		.loc 1 261 5 view .LVU401
 1219 00fa FFF7FEFF 		bl	Error_Handler
 1220              	.LVL61:
 1221 00fe CAE7     		b	.L65
 1222              	.L76:
 265:Core/Src/tim.c ****   }
 1223              		.loc 1 265 5 view .LVU402
 1224 0100 FFF7FEFF 		bl	Error_Handler
 1225              	.LVL62:
 1226 0104 CDE7     		b	.L66
 1227              	.L77:
 269:Core/Src/tim.c ****   }
 1228              		.loc 1 269 5 view .LVU403
 1229 0106 FFF7FEFF 		bl	Error_Handler
 1230              	.LVL63:
 1231 010a D0E7     		b	.L67
 1232              	.L78:
 273:Core/Src/tim.c ****   }
 1233              		.loc 1 273 5 view .LVU404
 1234 010c FFF7FEFF 		bl	Error_Handler
 1235              	.LVL64:
 1236 0110 D3E7     		b	.L68
 1237              	.L79:
 284:Core/Src/tim.c ****   }
 1238              		.loc 1 284 5 view .LVU405
 1239 0112 FFF7FEFF 		bl	Error_Handler
 1240              	.LVL65:
 1241 0116 DFE7     		b	.L69
 1242              	.L81:
 1243              		.align	2
 1244              	.L80:
 1245 0118 00000000 		.word	htim8
 1246 011c 00340140 		.word	1073820672
 1247              		.cfi_endproc
 1248              	.LFE69:
 1250              		.section	.text.HAL_TIM_Encoder_MspDeInit,"ax",%progbits
 1251              		.align	1
 1252              		.global	HAL_TIM_Encoder_MspDeInit
 1253              		.syntax unified
 1254              		.thumb
 1255              		.thumb_func
 1257              	HAL_TIM_Encoder_MspDeInit:
 1258              	.LVL66:
 1259              	.LFB73:
 434:Core/Src/tim.c **** 
ARM GAS  C:\Users\Lenovo\AppData\Local\Temp\cc08QWbk.s 			page 34


 435:Core/Src/tim.c **** void HAL_TIM_Encoder_MspDeInit(TIM_HandleTypeDef* tim_encoderHandle)
 436:Core/Src/tim.c **** {
 1260              		.loc 1 436 1 view -0
 1261              		.cfi_startproc
 1262              		@ args = 0, pretend = 0, frame = 0
 1263              		@ frame_needed = 0, uses_anonymous_args = 0
 1264              		.loc 1 436 1 is_stmt 0 view .LVU407
 1265 0000 08B5     		push	{r3, lr}
 1266              	.LCFI30:
 1267              		.cfi_def_cfa_offset 8
 1268              		.cfi_offset 3, -8
 1269              		.cfi_offset 14, -4
 437:Core/Src/tim.c **** 
 438:Core/Src/tim.c ****   if(tim_encoderHandle->Instance==TIM1)
 1270              		.loc 1 438 3 is_stmt 1 view .LVU408
 1271              		.loc 1 438 23 is_stmt 0 view .LVU409
 1272 0002 0368     		ldr	r3, [r0]
 1273              		.loc 1 438 5 view .LVU410
 1274 0004 1D4A     		ldr	r2, .L92
 1275 0006 9342     		cmp	r3, r2
 1276 0008 09D0     		beq	.L88
 439:Core/Src/tim.c ****   {
 440:Core/Src/tim.c ****   /* USER CODE BEGIN TIM1_MspDeInit 0 */
 441:Core/Src/tim.c **** 
 442:Core/Src/tim.c ****   /* USER CODE END TIM1_MspDeInit 0 */
 443:Core/Src/tim.c ****     /* Peripheral clock disable */
 444:Core/Src/tim.c ****     __HAL_RCC_TIM1_CLK_DISABLE();
 445:Core/Src/tim.c **** 
 446:Core/Src/tim.c ****     /**TIM1 GPIO Configuration
 447:Core/Src/tim.c ****     PE9     ------> TIM1_CH1
 448:Core/Src/tim.c ****     PE11     ------> TIM1_CH2
 449:Core/Src/tim.c ****     */
 450:Core/Src/tim.c ****     HAL_GPIO_DeInit(GPIOE, GPIO_PIN_9|GPIO_PIN_11);
 451:Core/Src/tim.c **** 
 452:Core/Src/tim.c ****   /* USER CODE BEGIN TIM1_MspDeInit 1 */
 453:Core/Src/tim.c **** 
 454:Core/Src/tim.c ****   /* USER CODE END TIM1_MspDeInit 1 */
 455:Core/Src/tim.c ****   }
 456:Core/Src/tim.c ****   else if(tim_encoderHandle->Instance==TIM3)
 1277              		.loc 1 456 8 is_stmt 1 view .LVU411
 1278              		.loc 1 456 10 is_stmt 0 view .LVU412
 1279 000a 1D4A     		ldr	r2, .L92+4
 1280 000c 9342     		cmp	r3, r2
 1281 000e 12D0     		beq	.L89
 457:Core/Src/tim.c ****   {
 458:Core/Src/tim.c ****   /* USER CODE BEGIN TIM3_MspDeInit 0 */
 459:Core/Src/tim.c **** 
 460:Core/Src/tim.c ****   /* USER CODE END TIM3_MspDeInit 0 */
 461:Core/Src/tim.c ****     /* Peripheral clock disable */
 462:Core/Src/tim.c ****     __HAL_RCC_TIM3_CLK_DISABLE();
 463:Core/Src/tim.c **** 
 464:Core/Src/tim.c ****     /**TIM3 GPIO Configuration
 465:Core/Src/tim.c ****     PA6     ------> TIM3_CH1
 466:Core/Src/tim.c ****     PA7     ------> TIM3_CH2
 467:Core/Src/tim.c ****     */
 468:Core/Src/tim.c ****     HAL_GPIO_DeInit(GPIOA, GPIO_PIN_6|GPIO_PIN_7);
 469:Core/Src/tim.c **** 
ARM GAS  C:\Users\Lenovo\AppData\Local\Temp\cc08QWbk.s 			page 35


 470:Core/Src/tim.c ****   /* USER CODE BEGIN TIM3_MspDeInit 1 */
 471:Core/Src/tim.c **** 
 472:Core/Src/tim.c ****   /* USER CODE END TIM3_MspDeInit 1 */
 473:Core/Src/tim.c ****   }
 474:Core/Src/tim.c ****   else if(tim_encoderHandle->Instance==TIM4)
 1282              		.loc 1 474 8 is_stmt 1 view .LVU413
 1283              		.loc 1 474 10 is_stmt 0 view .LVU414
 1284 0010 1C4A     		ldr	r2, .L92+8
 1285 0012 9342     		cmp	r3, r2
 1286 0014 1AD0     		beq	.L90
 475:Core/Src/tim.c ****   {
 476:Core/Src/tim.c ****   /* USER CODE BEGIN TIM4_MspDeInit 0 */
 477:Core/Src/tim.c **** 
 478:Core/Src/tim.c ****   /* USER CODE END TIM4_MspDeInit 0 */
 479:Core/Src/tim.c ****     /* Peripheral clock disable */
 480:Core/Src/tim.c ****     __HAL_RCC_TIM4_CLK_DISABLE();
 481:Core/Src/tim.c **** 
 482:Core/Src/tim.c ****     /**TIM4 GPIO Configuration
 483:Core/Src/tim.c ****     PD12     ------> TIM4_CH1
 484:Core/Src/tim.c ****     PD13     ------> TIM4_CH2
 485:Core/Src/tim.c ****     */
 486:Core/Src/tim.c ****     HAL_GPIO_DeInit(GPIOD, GPIO_PIN_12|GPIO_PIN_13);
 487:Core/Src/tim.c **** 
 488:Core/Src/tim.c ****   /* USER CODE BEGIN TIM4_MspDeInit 1 */
 489:Core/Src/tim.c **** 
 490:Core/Src/tim.c ****   /* USER CODE END TIM4_MspDeInit 1 */
 491:Core/Src/tim.c ****   }
 492:Core/Src/tim.c ****   else if(tim_encoderHandle->Instance==TIM5)
 1287              		.loc 1 492 8 is_stmt 1 view .LVU415
 1288              		.loc 1 492 10 is_stmt 0 view .LVU416
 1289 0016 1C4A     		ldr	r2, .L92+12
 1290 0018 9342     		cmp	r3, r2
 1291 001a 23D0     		beq	.L91
 1292              	.LVL67:
 1293              	.L82:
 493:Core/Src/tim.c ****   {
 494:Core/Src/tim.c ****   /* USER CODE BEGIN TIM5_MspDeInit 0 */
 495:Core/Src/tim.c **** 
 496:Core/Src/tim.c ****   /* USER CODE END TIM5_MspDeInit 0 */
 497:Core/Src/tim.c ****     /* Peripheral clock disable */
 498:Core/Src/tim.c ****     __HAL_RCC_TIM5_CLK_DISABLE();
 499:Core/Src/tim.c **** 
 500:Core/Src/tim.c ****     /**TIM5 GPIO Configuration
 501:Core/Src/tim.c ****     PA0-WKUP     ------> TIM5_CH1
 502:Core/Src/tim.c ****     PA1     ------> TIM5_CH2
 503:Core/Src/tim.c ****     */
 504:Core/Src/tim.c ****     HAL_GPIO_DeInit(GPIOA, GPIO_PIN_0|GPIO_PIN_1);
 505:Core/Src/tim.c **** 
 506:Core/Src/tim.c ****   /* USER CODE BEGIN TIM5_MspDeInit 1 */
 507:Core/Src/tim.c **** 
 508:Core/Src/tim.c ****   /* USER CODE END TIM5_MspDeInit 1 */
 509:Core/Src/tim.c ****   }
 510:Core/Src/tim.c **** }
 1294              		.loc 1 510 1 view .LVU417
 1295 001c 08BD     		pop	{r3, pc}
 1296              	.LVL68:
 1297              	.L88:
ARM GAS  C:\Users\Lenovo\AppData\Local\Temp\cc08QWbk.s 			page 36


 444:Core/Src/tim.c **** 
 1298              		.loc 1 444 5 is_stmt 1 view .LVU418
 1299 001e 02F56442 		add	r2, r2, #58368
 1300 0022 9369     		ldr	r3, [r2, #24]
 1301 0024 23F40063 		bic	r3, r3, #2048
 1302 0028 9361     		str	r3, [r2, #24]
 450:Core/Src/tim.c **** 
 1303              		.loc 1 450 5 view .LVU419
 1304 002a 4FF42061 		mov	r1, #2560
 1305 002e 1748     		ldr	r0, .L92+16
 1306              	.LVL69:
 450:Core/Src/tim.c **** 
 1307              		.loc 1 450 5 is_stmt 0 view .LVU420
 1308 0030 FFF7FEFF 		bl	HAL_GPIO_DeInit
 1309              	.LVL70:
 1310 0034 F2E7     		b	.L82
 1311              	.LVL71:
 1312              	.L89:
 462:Core/Src/tim.c **** 
 1313              		.loc 1 462 5 is_stmt 1 view .LVU421
 1314 0036 02F50332 		add	r2, r2, #134144
 1315 003a D369     		ldr	r3, [r2, #28]
 1316 003c 23F00203 		bic	r3, r3, #2
 1317 0040 D361     		str	r3, [r2, #28]
 468:Core/Src/tim.c **** 
 1318              		.loc 1 468 5 view .LVU422
 1319 0042 C021     		movs	r1, #192
 1320 0044 1248     		ldr	r0, .L92+20
 1321              	.LVL72:
 468:Core/Src/tim.c **** 
 1322              		.loc 1 468 5 is_stmt 0 view .LVU423
 1323 0046 FFF7FEFF 		bl	HAL_GPIO_DeInit
 1324              	.LVL73:
 1325 004a E7E7     		b	.L82
 1326              	.LVL74:
 1327              	.L90:
 480:Core/Src/tim.c **** 
 1328              		.loc 1 480 5 is_stmt 1 view .LVU424
 1329 004c 02F50232 		add	r2, r2, #133120
 1330 0050 D369     		ldr	r3, [r2, #28]
 1331 0052 23F00403 		bic	r3, r3, #4
 1332 0056 D361     		str	r3, [r2, #28]
 486:Core/Src/tim.c **** 
 1333              		.loc 1 486 5 view .LVU425
 1334 0058 4FF44051 		mov	r1, #12288
 1335 005c 0D48     		ldr	r0, .L92+24
 1336              	.LVL75:
 486:Core/Src/tim.c **** 
 1337              		.loc 1 486 5 is_stmt 0 view .LVU426
 1338 005e FFF7FEFF 		bl	HAL_GPIO_DeInit
 1339              	.LVL76:
 1340 0062 DBE7     		b	.L82
 1341              	.LVL77:
 1342              	.L91:
 498:Core/Src/tim.c **** 
 1343              		.loc 1 498 5 is_stmt 1 view .LVU427
 1344 0064 02F50132 		add	r2, r2, #132096
ARM GAS  C:\Users\Lenovo\AppData\Local\Temp\cc08QWbk.s 			page 37


 1345 0068 D369     		ldr	r3, [r2, #28]
 1346 006a 23F00803 		bic	r3, r3, #8
 1347 006e D361     		str	r3, [r2, #28]
 504:Core/Src/tim.c **** 
 1348              		.loc 1 504 5 view .LVU428
 1349 0070 0321     		movs	r1, #3
 1350 0072 0748     		ldr	r0, .L92+20
 1351              	.LVL78:
 504:Core/Src/tim.c **** 
 1352              		.loc 1 504 5 is_stmt 0 view .LVU429
 1353 0074 FFF7FEFF 		bl	HAL_GPIO_DeInit
 1354              	.LVL79:
 1355              		.loc 1 510 1 view .LVU430
 1356 0078 D0E7     		b	.L82
 1357              	.L93:
 1358 007a 00BF     		.align	2
 1359              	.L92:
 1360 007c 002C0140 		.word	1073818624
 1361 0080 00040040 		.word	1073742848
 1362 0084 00080040 		.word	1073743872
 1363 0088 000C0040 		.word	1073744896
 1364 008c 00180140 		.word	1073813504
 1365 0090 00080140 		.word	1073809408
 1366 0094 00140140 		.word	1073812480
 1367              		.cfi_endproc
 1368              	.LFE73:
 1370              		.section	.text.HAL_TIM_Base_MspDeInit,"ax",%progbits
 1371              		.align	1
 1372              		.global	HAL_TIM_Base_MspDeInit
 1373              		.syntax unified
 1374              		.thumb
 1375              		.thumb_func
 1377              	HAL_TIM_Base_MspDeInit:
 1378              	.LVL80:
 1379              	.LFB74:
 511:Core/Src/tim.c **** 
 512:Core/Src/tim.c **** void HAL_TIM_Base_MspDeInit(TIM_HandleTypeDef* tim_baseHandle)
 513:Core/Src/tim.c **** {
 1380              		.loc 1 513 1 is_stmt 1 view -0
 1381              		.cfi_startproc
 1382              		@ args = 0, pretend = 0, frame = 0
 1383              		@ frame_needed = 0, uses_anonymous_args = 0
 1384              		@ link register save eliminated.
 514:Core/Src/tim.c **** 
 515:Core/Src/tim.c ****   if(tim_baseHandle->Instance==TIM8)
 1385              		.loc 1 515 3 view .LVU432
 1386              		.loc 1 515 20 is_stmt 0 view .LVU433
 1387 0000 0268     		ldr	r2, [r0]
 1388              		.loc 1 515 5 view .LVU434
 1389 0002 054B     		ldr	r3, .L97
 1390 0004 9A42     		cmp	r2, r3
 1391 0006 00D0     		beq	.L96
 1392              	.L94:
 516:Core/Src/tim.c ****   {
 517:Core/Src/tim.c ****   /* USER CODE BEGIN TIM8_MspDeInit 0 */
 518:Core/Src/tim.c **** 
 519:Core/Src/tim.c ****   /* USER CODE END TIM8_MspDeInit 0 */
ARM GAS  C:\Users\Lenovo\AppData\Local\Temp\cc08QWbk.s 			page 38


 520:Core/Src/tim.c ****     /* Peripheral clock disable */
 521:Core/Src/tim.c ****     __HAL_RCC_TIM8_CLK_DISABLE();
 522:Core/Src/tim.c ****   /* USER CODE BEGIN TIM8_MspDeInit 1 */
 523:Core/Src/tim.c **** 
 524:Core/Src/tim.c ****   /* USER CODE END TIM8_MspDeInit 1 */
 525:Core/Src/tim.c ****   }
 526:Core/Src/tim.c **** }
 1393              		.loc 1 526 1 view .LVU435
 1394 0008 7047     		bx	lr
 1395              	.L96:
 521:Core/Src/tim.c ****   /* USER CODE BEGIN TIM8_MspDeInit 1 */
 1396              		.loc 1 521 5 is_stmt 1 view .LVU436
 1397 000a 044A     		ldr	r2, .L97+4
 1398 000c 9369     		ldr	r3, [r2, #24]
 1399 000e 23F40053 		bic	r3, r3, #8192
 1400 0012 9361     		str	r3, [r2, #24]
 1401              		.loc 1 526 1 is_stmt 0 view .LVU437
 1402 0014 F8E7     		b	.L94
 1403              	.L98:
 1404 0016 00BF     		.align	2
 1405              	.L97:
 1406 0018 00340140 		.word	1073820672
 1407 001c 00100240 		.word	1073876992
 1408              		.cfi_endproc
 1409              	.LFE74:
 1411              		.global	htim8
 1412              		.section	.bss.htim8,"aw",%nobits
 1413              		.align	2
 1416              	htim8:
 1417 0000 00000000 		.space	72
 1417      00000000 
 1417      00000000 
 1417      00000000 
 1417      00000000 
 1418              		.global	htim5
 1419              		.section	.bss.htim5,"aw",%nobits
 1420              		.align	2
 1423              	htim5:
 1424 0000 00000000 		.space	72
 1424      00000000 
 1424      00000000 
 1424      00000000 
 1424      00000000 
 1425              		.global	htim4
 1426              		.section	.bss.htim4,"aw",%nobits
 1427              		.align	2
 1430              	htim4:
 1431 0000 00000000 		.space	72
 1431      00000000 
 1431      00000000 
 1431      00000000 
 1431      00000000 
 1432              		.global	htim3
 1433              		.section	.bss.htim3,"aw",%nobits
 1434              		.align	2
 1437              	htim3:
 1438 0000 00000000 		.space	72
ARM GAS  C:\Users\Lenovo\AppData\Local\Temp\cc08QWbk.s 			page 39


 1438      00000000 
 1438      00000000 
 1438      00000000 
 1438      00000000 
 1439              		.global	htim1
 1440              		.section	.bss.htim1,"aw",%nobits
 1441              		.align	2
 1444              	htim1:
 1445 0000 00000000 		.space	72
 1445      00000000 
 1445      00000000 
 1445      00000000 
 1445      00000000 
 1446              		.text
 1447              	.Letext0:
 1448              		.file 2 "D:/arm-none-eabi-gcc/arm-none-eabi/include/machine/_default_types.h"
 1449              		.file 3 "D:/arm-none-eabi-gcc/arm-none-eabi/include/sys/_stdint.h"
 1450              		.file 4 "Drivers/CMSIS/Device/ST/STM32F1xx/Include/stm32f103xe.h"
 1451              		.file 5 "Drivers/STM32F1xx_HAL_Driver/Inc/stm32f1xx_hal_def.h"
 1452              		.file 6 "Drivers/STM32F1xx_HAL_Driver/Inc/stm32f1xx_hal_gpio.h"
 1453              		.file 7 "Drivers/STM32F1xx_HAL_Driver/Inc/stm32f1xx_hal_dma.h"
 1454              		.file 8 "Drivers/STM32F1xx_HAL_Driver/Inc/stm32f1xx_hal_tim.h"
 1455              		.file 9 "Core/Inc/tim.h"
 1456              		.file 10 "Drivers/STM32F1xx_HAL_Driver/Inc/stm32f1xx_hal_tim_ex.h"
 1457              		.file 11 "Core/Inc/main.h"
 1458              		.file 12 "<built-in>"
ARM GAS  C:\Users\Lenovo\AppData\Local\Temp\cc08QWbk.s 			page 40

